ARM GAS  C:\Users\pajoh\AppData\Local\Temp\cctC92Wc.s 			page 1


   1              		.syntax unified
   2              		.cpu cortex-m3
   3              		.fpu softvfp
   4              		.eabi_attribute 20, 1
   5              		.eabi_attribute 21, 1
   6              		.eabi_attribute 23, 3
   7              		.eabi_attribute 24, 1
   8              		.eabi_attribute 25, 1
   9              		.eabi_attribute 26, 1
  10              		.eabi_attribute 30, 6
  11              		.eabi_attribute 34, 1
  12              		.eabi_attribute 18, 4
  13              		.thumb
  14              		.syntax unified
  15              		.file	"cyfitter_cfg.c"
  16              		.text
  17              	.Ltext0:
  18              		.cfi_sections	.debug_frame
  19              		.section	.text.CYMEMZERO,"ax",%progbits
  20              		.align	2
  21              		.thumb
  22              		.thumb_func
  23              		.type	CYMEMZERO, %function
  24              	CYMEMZERO:
  25              	.LFB0:
  26              		.file 1 "Generated_Source\\PSoC5\\cyfitter_cfg.c"
   1:Generated_Source\PSoC5/cyfitter_cfg.c **** 
   2:Generated_Source\PSoC5/cyfitter_cfg.c **** /*******************************************************************************
   3:Generated_Source\PSoC5/cyfitter_cfg.c **** * File Name: cyfitter_cfg.c
   4:Generated_Source\PSoC5/cyfitter_cfg.c **** * 
   5:Generated_Source\PSoC5/cyfitter_cfg.c **** * PSoC Creator  4.2
   6:Generated_Source\PSoC5/cyfitter_cfg.c **** *
   7:Generated_Source\PSoC5/cyfitter_cfg.c **** * Description:
   8:Generated_Source\PSoC5/cyfitter_cfg.c **** * This file contains device initialization code.
   9:Generated_Source\PSoC5/cyfitter_cfg.c **** * Except for the user defined sections in CyClockStartupError(), this file should not be modified.
  10:Generated_Source\PSoC5/cyfitter_cfg.c **** * This file is automatically generated by PSoC Creator.
  11:Generated_Source\PSoC5/cyfitter_cfg.c **** *
  12:Generated_Source\PSoC5/cyfitter_cfg.c **** ********************************************************************************
  13:Generated_Source\PSoC5/cyfitter_cfg.c **** * Copyright (c) 2007-2018 Cypress Semiconductor.  All rights reserved.
  14:Generated_Source\PSoC5/cyfitter_cfg.c **** * You may use this file only in accordance with the license, terms, conditions, 
  15:Generated_Source\PSoC5/cyfitter_cfg.c **** * disclaimers, and limitations in the end user license agreement accompanying 
  16:Generated_Source\PSoC5/cyfitter_cfg.c **** * the software package with which this file was provided.
  17:Generated_Source\PSoC5/cyfitter_cfg.c **** ********************************************************************************/
  18:Generated_Source\PSoC5/cyfitter_cfg.c **** 
  19:Generated_Source\PSoC5/cyfitter_cfg.c **** #include <string.h>
  20:Generated_Source\PSoC5/cyfitter_cfg.c **** #include "cytypes.h"
  21:Generated_Source\PSoC5/cyfitter_cfg.c **** #include "cydevice_trm.h"
  22:Generated_Source\PSoC5/cyfitter_cfg.c **** #include "cyfitter.h"
  23:Generated_Source\PSoC5/cyfitter_cfg.c **** #include "CyLib.h"
  24:Generated_Source\PSoC5/cyfitter_cfg.c **** #include "cyfitter_cfg.h"
  25:Generated_Source\PSoC5/cyfitter_cfg.c **** #include "cyapicallbacks.h"
  26:Generated_Source\PSoC5/cyfitter_cfg.c **** 
  27:Generated_Source\PSoC5/cyfitter_cfg.c **** #define CY_NEED_CYCLOCKSTARTUPERROR 1
  28:Generated_Source\PSoC5/cyfitter_cfg.c **** 
  29:Generated_Source\PSoC5/cyfitter_cfg.c **** 
  30:Generated_Source\PSoC5/cyfitter_cfg.c **** #if defined(__GNUC__) || defined(__ARMCC_VERSION)
  31:Generated_Source\PSoC5/cyfitter_cfg.c ****     #define CYPACKED 
ARM GAS  C:\Users\pajoh\AppData\Local\Temp\cctC92Wc.s 			page 2


  32:Generated_Source\PSoC5/cyfitter_cfg.c ****     #define CYPACKED_ATTR __attribute__ ((packed))
  33:Generated_Source\PSoC5/cyfitter_cfg.c ****     #define CYALIGNED __attribute__ ((aligned))
  34:Generated_Source\PSoC5/cyfitter_cfg.c ****     #define CY_CFG_UNUSED __attribute__ ((unused))
  35:Generated_Source\PSoC5/cyfitter_cfg.c ****     #ifndef CY_CFG_SECTION
  36:Generated_Source\PSoC5/cyfitter_cfg.c ****         #define CY_CFG_SECTION __attribute__ ((section(".psocinit")))
  37:Generated_Source\PSoC5/cyfitter_cfg.c ****     #endif
  38:Generated_Source\PSoC5/cyfitter_cfg.c ****     
  39:Generated_Source\PSoC5/cyfitter_cfg.c ****     #if CYDEV_CONFIGURATION_DMA
  40:Generated_Source\PSoC5/cyfitter_cfg.c ****         #if (defined(__ARMCC_VERSION) || defined(__GNUC__))
  41:Generated_Source\PSoC5/cyfitter_cfg.c ****             #ifndef DMAINITSEC
  42:Generated_Source\PSoC5/cyfitter_cfg.c ****                 #define DMAINITSEC __attribute__ ((section(".dma_init")))
  43:Generated_Source\PSoC5/cyfitter_cfg.c ****             #endif
  44:Generated_Source\PSoC5/cyfitter_cfg.c ****         #elif defined(__ICCARM__)
  45:Generated_Source\PSoC5/cyfitter_cfg.c ****             #define DMAINITSEC _Pragma("location=\".dma_init\"")
  46:Generated_Source\PSoC5/cyfitter_cfg.c ****         #endif
  47:Generated_Source\PSoC5/cyfitter_cfg.c ****     #else
  48:Generated_Source\PSoC5/cyfitter_cfg.c ****         #define DMAINITSEC
  49:Generated_Source\PSoC5/cyfitter_cfg.c ****     #endif
  50:Generated_Source\PSoC5/cyfitter_cfg.c **** 
  51:Generated_Source\PSoC5/cyfitter_cfg.c ****     #if defined(__ARMCC_VERSION)
  52:Generated_Source\PSoC5/cyfitter_cfg.c ****         #define CY_CFG_MEMORY_BARRIER() __memory_changed()
  53:Generated_Source\PSoC5/cyfitter_cfg.c ****     #else
  54:Generated_Source\PSoC5/cyfitter_cfg.c ****         #define CY_CFG_MEMORY_BARRIER() __sync_synchronize()
  55:Generated_Source\PSoC5/cyfitter_cfg.c ****     #endif
  56:Generated_Source\PSoC5/cyfitter_cfg.c ****     
  57:Generated_Source\PSoC5/cyfitter_cfg.c **** #elif defined(__ICCARM__)
  58:Generated_Source\PSoC5/cyfitter_cfg.c ****     #include <intrinsics.h>
  59:Generated_Source\PSoC5/cyfitter_cfg.c **** 
  60:Generated_Source\PSoC5/cyfitter_cfg.c ****     #define CYPACKED __packed
  61:Generated_Source\PSoC5/cyfitter_cfg.c ****     #define CYPACKED_ATTR 
  62:Generated_Source\PSoC5/cyfitter_cfg.c ****     #define CYALIGNED _Pragma("data_alignment=4")
  63:Generated_Source\PSoC5/cyfitter_cfg.c ****     #define CY_CFG_UNUSED _Pragma("diag_suppress=Pe177")
  64:Generated_Source\PSoC5/cyfitter_cfg.c ****     #define CY_CFG_SECTION _Pragma("location=\".psocinit\"")
  65:Generated_Source\PSoC5/cyfitter_cfg.c ****     
  66:Generated_Source\PSoC5/cyfitter_cfg.c ****     #if CYDEV_CONFIGURATION_DMA
  67:Generated_Source\PSoC5/cyfitter_cfg.c ****         #if (defined(__ARMCC_VERSION) || defined(__GNUC__))
  68:Generated_Source\PSoC5/cyfitter_cfg.c ****             #ifndef DMAINITSEC
  69:Generated_Source\PSoC5/cyfitter_cfg.c ****                 #define DMAINITSEC __attribute__ ((section(".dma_init")))
  70:Generated_Source\PSoC5/cyfitter_cfg.c ****             #endif
  71:Generated_Source\PSoC5/cyfitter_cfg.c ****         #elif defined(__ICCARM__)
  72:Generated_Source\PSoC5/cyfitter_cfg.c ****             #define DMAINITSEC _Pragma("location=\".dma_init\"")
  73:Generated_Source\PSoC5/cyfitter_cfg.c ****         #endif
  74:Generated_Source\PSoC5/cyfitter_cfg.c ****     #else
  75:Generated_Source\PSoC5/cyfitter_cfg.c ****         #define DMAINITSEC
  76:Generated_Source\PSoC5/cyfitter_cfg.c ****     #endif
  77:Generated_Source\PSoC5/cyfitter_cfg.c **** 
  78:Generated_Source\PSoC5/cyfitter_cfg.c ****     #define CY_CFG_MEMORY_BARRIER() __DMB()
  79:Generated_Source\PSoC5/cyfitter_cfg.c ****     
  80:Generated_Source\PSoC5/cyfitter_cfg.c **** #else
  81:Generated_Source\PSoC5/cyfitter_cfg.c ****     #error Unsupported toolchain
  82:Generated_Source\PSoC5/cyfitter_cfg.c **** #endif
  83:Generated_Source\PSoC5/cyfitter_cfg.c **** 
  84:Generated_Source\PSoC5/cyfitter_cfg.c **** #ifndef CYCODE
  85:Generated_Source\PSoC5/cyfitter_cfg.c ****     #define CYCODE
  86:Generated_Source\PSoC5/cyfitter_cfg.c **** #endif
  87:Generated_Source\PSoC5/cyfitter_cfg.c **** #ifndef CYDATA
  88:Generated_Source\PSoC5/cyfitter_cfg.c ****     #define CYDATA
ARM GAS  C:\Users\pajoh\AppData\Local\Temp\cctC92Wc.s 			page 3


  89:Generated_Source\PSoC5/cyfitter_cfg.c **** #endif
  90:Generated_Source\PSoC5/cyfitter_cfg.c **** #ifndef CYFAR
  91:Generated_Source\PSoC5/cyfitter_cfg.c ****     #define CYFAR
  92:Generated_Source\PSoC5/cyfitter_cfg.c **** #endif
  93:Generated_Source\PSoC5/cyfitter_cfg.c **** #ifndef CYXDATA
  94:Generated_Source\PSoC5/cyfitter_cfg.c ****     #define CYXDATA
  95:Generated_Source\PSoC5/cyfitter_cfg.c **** #endif
  96:Generated_Source\PSoC5/cyfitter_cfg.c **** 
  97:Generated_Source\PSoC5/cyfitter_cfg.c **** 
  98:Generated_Source\PSoC5/cyfitter_cfg.c **** CY_CFG_UNUSED
  99:Generated_Source\PSoC5/cyfitter_cfg.c **** static void CYMEMZERO(void *s, size_t n);
 100:Generated_Source\PSoC5/cyfitter_cfg.c **** CY_CFG_UNUSED
 101:Generated_Source\PSoC5/cyfitter_cfg.c **** static void CYMEMZERO(void *s, size_t n)
 102:Generated_Source\PSoC5/cyfitter_cfg.c **** {
  27              		.loc 1 102 0
  28              		.cfi_startproc
  29              		@ args = 0, pretend = 0, frame = 8
  30              		@ frame_needed = 1, uses_anonymous_args = 0
  31 0000 80B5     		push	{r7, lr}
  32              		.cfi_def_cfa_offset 8
  33              		.cfi_offset 7, -8
  34              		.cfi_offset 14, -4
  35 0002 82B0     		sub	sp, sp, #8
  36              		.cfi_def_cfa_offset 16
  37 0004 00AF     		add	r7, sp, #0
  38              		.cfi_def_cfa_register 7
  39 0006 7860     		str	r0, [r7, #4]
  40 0008 3960     		str	r1, [r7]
 103:Generated_Source\PSoC5/cyfitter_cfg.c **** 	(void)memset(s, 0, n);
  41              		.loc 1 103 0
  42 000a 3A68     		ldr	r2, [r7]
  43 000c 0021     		movs	r1, #0
  44 000e 7868     		ldr	r0, [r7, #4]
  45 0010 FFF7FEFF 		bl	memset
 104:Generated_Source\PSoC5/cyfitter_cfg.c **** }
  46              		.loc 1 104 0
  47 0014 00BF     		nop
  48 0016 0837     		adds	r7, r7, #8
  49              		.cfi_def_cfa_offset 8
  50 0018 BD46     		mov	sp, r7
  51              		.cfi_def_cfa_register 13
  52              		@ sp needed
  53 001a 80BD     		pop	{r7, pc}
  54              		.cfi_endproc
  55              	.LFE0:
  56              		.size	CYMEMZERO, .-CYMEMZERO
  57              		.section	.text.CYCONFIGCPY,"ax",%progbits
  58              		.align	2
  59              		.thumb
  60              		.thumb_func
  61              		.type	CYCONFIGCPY, %function
  62              	CYCONFIGCPY:
  63              	.LFB1:
 105:Generated_Source\PSoC5/cyfitter_cfg.c **** CY_CFG_UNUSED
 106:Generated_Source\PSoC5/cyfitter_cfg.c **** static void CYCONFIGCPY(void *dest, const void *src, size_t n);
 107:Generated_Source\PSoC5/cyfitter_cfg.c **** CY_CFG_UNUSED
 108:Generated_Source\PSoC5/cyfitter_cfg.c **** static void CYCONFIGCPY(void *dest, const void *src, size_t n)
ARM GAS  C:\Users\pajoh\AppData\Local\Temp\cctC92Wc.s 			page 4


 109:Generated_Source\PSoC5/cyfitter_cfg.c **** {
  64              		.loc 1 109 0
  65              		.cfi_startproc
  66              		@ args = 0, pretend = 0, frame = 16
  67              		@ frame_needed = 1, uses_anonymous_args = 0
  68 0000 80B5     		push	{r7, lr}
  69              		.cfi_def_cfa_offset 8
  70              		.cfi_offset 7, -8
  71              		.cfi_offset 14, -4
  72 0002 84B0     		sub	sp, sp, #16
  73              		.cfi_def_cfa_offset 24
  74 0004 00AF     		add	r7, sp, #0
  75              		.cfi_def_cfa_register 7
  76 0006 F860     		str	r0, [r7, #12]
  77 0008 B960     		str	r1, [r7, #8]
  78 000a 7A60     		str	r2, [r7, #4]
 110:Generated_Source\PSoC5/cyfitter_cfg.c **** 	(void)memcpy(dest, src, n);
  79              		.loc 1 110 0
  80 000c 7A68     		ldr	r2, [r7, #4]
  81 000e B968     		ldr	r1, [r7, #8]
  82 0010 F868     		ldr	r0, [r7, #12]
  83 0012 FFF7FEFF 		bl	memcpy
 111:Generated_Source\PSoC5/cyfitter_cfg.c **** }
  84              		.loc 1 111 0
  85 0016 00BF     		nop
  86 0018 1037     		adds	r7, r7, #16
  87              		.cfi_def_cfa_offset 8
  88 001a BD46     		mov	sp, r7
  89              		.cfi_def_cfa_register 13
  90              		@ sp needed
  91 001c 80BD     		pop	{r7, pc}
  92              		.cfi_endproc
  93              	.LFE1:
  94              		.size	CYCONFIGCPY, .-CYCONFIGCPY
  95 001e 00BF     		.section	.text.CYCONFIGCPYCODE,"ax",%progbits
  96              		.align	2
  97              		.thumb
  98              		.thumb_func
  99              		.type	CYCONFIGCPYCODE, %function
 100              	CYCONFIGCPYCODE:
 101              	.LFB2:
 112:Generated_Source\PSoC5/cyfitter_cfg.c **** CY_CFG_UNUSED
 113:Generated_Source\PSoC5/cyfitter_cfg.c **** static void CYCONFIGCPYCODE(void *dest, const void *src, size_t n);
 114:Generated_Source\PSoC5/cyfitter_cfg.c **** CY_CFG_UNUSED
 115:Generated_Source\PSoC5/cyfitter_cfg.c **** static void CYCONFIGCPYCODE(void *dest, const void *src, size_t n)
 116:Generated_Source\PSoC5/cyfitter_cfg.c **** {
 102              		.loc 1 116 0
 103              		.cfi_startproc
 104              		@ args = 0, pretend = 0, frame = 16
 105              		@ frame_needed = 1, uses_anonymous_args = 0
 106 0000 80B5     		push	{r7, lr}
 107              		.cfi_def_cfa_offset 8
 108              		.cfi_offset 7, -8
 109              		.cfi_offset 14, -4
 110 0002 84B0     		sub	sp, sp, #16
 111              		.cfi_def_cfa_offset 24
 112 0004 00AF     		add	r7, sp, #0
ARM GAS  C:\Users\pajoh\AppData\Local\Temp\cctC92Wc.s 			page 5


 113              		.cfi_def_cfa_register 7
 114 0006 F860     		str	r0, [r7, #12]
 115 0008 B960     		str	r1, [r7, #8]
 116 000a 7A60     		str	r2, [r7, #4]
 117:Generated_Source\PSoC5/cyfitter_cfg.c **** 	(void)memcpy(dest, src, n);
 117              		.loc 1 117 0
 118 000c 7A68     		ldr	r2, [r7, #4]
 119 000e B968     		ldr	r1, [r7, #8]
 120 0010 F868     		ldr	r0, [r7, #12]
 121 0012 FFF7FEFF 		bl	memcpy
 118:Generated_Source\PSoC5/cyfitter_cfg.c **** }
 122              		.loc 1 118 0
 123 0016 00BF     		nop
 124 0018 1037     		adds	r7, r7, #16
 125              		.cfi_def_cfa_offset 8
 126 001a BD46     		mov	sp, r7
 127              		.cfi_def_cfa_register 13
 128              		@ sp needed
 129 001c 80BD     		pop	{r7, pc}
 130              		.cfi_endproc
 131              	.LFE2:
 132              		.size	CYCONFIGCPYCODE, .-CYCONFIGCPYCODE
 133 001e 00BF     		.section	.text.CyClockStartupError,"ax",%progbits
 134              		.align	2
 135              		.thumb
 136              		.thumb_func
 137              		.type	CyClockStartupError, %function
 138              	CyClockStartupError:
 139              	.LFB3:
 119:Generated_Source\PSoC5/cyfitter_cfg.c **** 
 120:Generated_Source\PSoC5/cyfitter_cfg.c **** 
 121:Generated_Source\PSoC5/cyfitter_cfg.c **** 
 122:Generated_Source\PSoC5/cyfitter_cfg.c **** 
 123:Generated_Source\PSoC5/cyfitter_cfg.c **** /* Clock startup error codes                                                   */
 124:Generated_Source\PSoC5/cyfitter_cfg.c **** #define CYCLOCKSTART_NO_ERROR    0u
 125:Generated_Source\PSoC5/cyfitter_cfg.c **** #define CYCLOCKSTART_XTAL_ERROR  1u
 126:Generated_Source\PSoC5/cyfitter_cfg.c **** #define CYCLOCKSTART_32KHZ_ERROR 2u
 127:Generated_Source\PSoC5/cyfitter_cfg.c **** #define CYCLOCKSTART_PLL_ERROR   3u
 128:Generated_Source\PSoC5/cyfitter_cfg.c **** #define CYCLOCKSTART_FLL_ERROR   4u
 129:Generated_Source\PSoC5/cyfitter_cfg.c **** #define CYCLOCKSTART_WCO_ERROR   5u
 130:Generated_Source\PSoC5/cyfitter_cfg.c **** 
 131:Generated_Source\PSoC5/cyfitter_cfg.c **** 
 132:Generated_Source\PSoC5/cyfitter_cfg.c **** #ifdef CY_NEED_CYCLOCKSTARTUPERROR
 133:Generated_Source\PSoC5/cyfitter_cfg.c **** /*******************************************************************************
 134:Generated_Source\PSoC5/cyfitter_cfg.c **** * Function Name: CyClockStartupError
 135:Generated_Source\PSoC5/cyfitter_cfg.c **** ********************************************************************************
 136:Generated_Source\PSoC5/cyfitter_cfg.c **** * Summary:
 137:Generated_Source\PSoC5/cyfitter_cfg.c **** *  If an error is encountered during clock configuration (crystal startup error,
 138:Generated_Source\PSoC5/cyfitter_cfg.c **** *  PLL lock error, etc.), the system will end up here.  Unless reimplemented by
 139:Generated_Source\PSoC5/cyfitter_cfg.c **** *  the customer, this function will stop in an infinite loop.
 140:Generated_Source\PSoC5/cyfitter_cfg.c **** *
 141:Generated_Source\PSoC5/cyfitter_cfg.c **** * Parameters:
 142:Generated_Source\PSoC5/cyfitter_cfg.c **** *   void
 143:Generated_Source\PSoC5/cyfitter_cfg.c **** *
 144:Generated_Source\PSoC5/cyfitter_cfg.c **** * Return:
 145:Generated_Source\PSoC5/cyfitter_cfg.c **** *   void
 146:Generated_Source\PSoC5/cyfitter_cfg.c **** *
ARM GAS  C:\Users\pajoh\AppData\Local\Temp\cctC92Wc.s 			page 6


 147:Generated_Source\PSoC5/cyfitter_cfg.c **** *******************************************************************************/
 148:Generated_Source\PSoC5/cyfitter_cfg.c **** CY_CFG_UNUSED
 149:Generated_Source\PSoC5/cyfitter_cfg.c **** static void CyClockStartupError(uint8 errorCode);
 150:Generated_Source\PSoC5/cyfitter_cfg.c **** CY_CFG_UNUSED
 151:Generated_Source\PSoC5/cyfitter_cfg.c **** static void CyClockStartupError(uint8 errorCode)
 152:Generated_Source\PSoC5/cyfitter_cfg.c **** {
 140              		.loc 1 152 0
 141              		.cfi_startproc
 142              		@ args = 0, pretend = 0, frame = 8
 143              		@ frame_needed = 1, uses_anonymous_args = 0
 144              		@ link register save eliminated.
 145 0000 80B4     		push	{r7}
 146              		.cfi_def_cfa_offset 4
 147              		.cfi_offset 7, -4
 148 0002 83B0     		sub	sp, sp, #12
 149              		.cfi_def_cfa_offset 16
 150 0004 00AF     		add	r7, sp, #0
 151              		.cfi_def_cfa_register 7
 152 0006 0346     		mov	r3, r0
 153 0008 FB71     		strb	r3, [r7, #7]
 154              	.L5:
 153:Generated_Source\PSoC5/cyfitter_cfg.c ****     /* To remove the compiler warning if errorCode not used.                */
 154:Generated_Source\PSoC5/cyfitter_cfg.c ****     errorCode = errorCode;
 155:Generated_Source\PSoC5/cyfitter_cfg.c **** 
 156:Generated_Source\PSoC5/cyfitter_cfg.c ****     /* If we have a clock startup error (bad MHz crystal, PLL lock, etc.),  */
 157:Generated_Source\PSoC5/cyfitter_cfg.c ****     /* we will end up here to allow the customer to implement something to  */
 158:Generated_Source\PSoC5/cyfitter_cfg.c ****     /* deal with the clock condition.                                       */
 159:Generated_Source\PSoC5/cyfitter_cfg.c **** 
 160:Generated_Source\PSoC5/cyfitter_cfg.c **** #ifdef CY_CFG_CLOCK_STARTUP_ERROR_CALLBACK
 161:Generated_Source\PSoC5/cyfitter_cfg.c ****     CY_CFG_Clock_Startup_ErrorCallback();
 162:Generated_Source\PSoC5/cyfitter_cfg.c **** #else
 163:Generated_Source\PSoC5/cyfitter_cfg.c ****     /*  If not using CY_CFG_CLOCK_STARTUP_ERROR_CALLBACK, place your clock startup code here. */
 164:Generated_Source\PSoC5/cyfitter_cfg.c ****     /* `#START CyClockStartupError` */
 165:Generated_Source\PSoC5/cyfitter_cfg.c **** 
 166:Generated_Source\PSoC5/cyfitter_cfg.c **** 
 167:Generated_Source\PSoC5/cyfitter_cfg.c **** 
 168:Generated_Source\PSoC5/cyfitter_cfg.c ****     /* `#END` */
 169:Generated_Source\PSoC5/cyfitter_cfg.c **** 
 170:Generated_Source\PSoC5/cyfitter_cfg.c ****     while(1) {}
 155              		.loc 1 170 0 discriminator 1
 156 000a FEE7     		b	.L5
 157              		.cfi_endproc
 158              	.LFE3:
 159              		.size	CyClockStartupError, .-CyClockStartupError
 160              		.section	.dma_init,"a",%progbits
 161              		.align	2
 162              		.type	CH1_ADDR_DATA0.4972, %object
 163              		.size	CH1_ADDR_DATA0.4972, 8
 164              	CH1_ADDR_DATA0.4972:
 165 0000 01       		.byte	1
 166 0001 00       		.byte	0
 167 0002 00       		.byte	0
 168 0003 00       		.byte	0
 169 0004 00       		.byte	0
 170 0005 20       		.byte	32
 171 0006 00       		.byte	0
 172 0007 40       		.byte	64
ARM GAS  C:\Users\pajoh\AppData\Local\Temp\cctC92Wc.s 			page 7


 173              		.align	2
 174              		.type	CH2_ADDR_DATA0.4973, %object
 175              		.size	CH2_ADDR_DATA0.4973, 8
 176              	CH2_ADDR_DATA0.4973:
 177 0008 01       		.byte	1
 178 0009 00       		.byte	0
 179 000a 00       		.byte	0
 180 000b 00       		.byte	0
 181 000c 00       		.byte	0
 182 000d 20       		.byte	32
 183 000e 01       		.byte	1
 184 000f 40       		.byte	64
 185              		.align	2
 186              		.type	CH5_ADDR_DATA0.4974, %object
 187              		.size	CH5_ADDR_DATA0.4974, 8
 188              	CH5_ADDR_DATA0.4974:
 189 0010 01       		.byte	1
 190 0011 00       		.byte	0
 191 0012 00       		.byte	0
 192 0013 00       		.byte	0
 193 0014 00       		.byte	0
 194 0015 48       		.byte	72
 195 0016 00       		.byte	0
 196 0017 40       		.byte	64
 197              		.align	2
 198              		.type	CH6_ADDR_DATA0.4975, %object
 199              		.size	CH6_ADDR_DATA0.4975, 8
 200              	CH6_ADDR_DATA0.4975:
 201 0018 01       		.byte	1
 202 0019 00       		.byte	0
 203 001a 00       		.byte	0
 204 001b 00       		.byte	0
 205 001c 00       		.byte	0
 206 001d 48       		.byte	72
 207 001e 01       		.byte	1
 208 001f 40       		.byte	64
 209              		.align	2
 210              		.type	DMA_TD_START_CMD.4976, %object
 211              		.size	DMA_TD_START_CMD.4976, 5
 212              	DMA_TD_START_CMD.4976:
 213 0020 01       		.byte	1
 214 0021 00       		.byte	0
 215 0022 00       		.byte	0
 216 0023 00       		.byte	0
 217 0024 01       		.byte	1
 218 0025 000000   		.align	2
 219              		.type	CFG_TD_LIST0.4978, %object
 220              		.size	CFG_TD_LIST0.4978, 656
 221              	CFG_TD_LIST0.4978:
 222 0028 0800     		.short	8
 223 002a 02       		.byte	2
 224 002b 23       		.byte	35
 225 002c 0000     		.short	0
 226 002e 0876     		.short	30216
 227 0030 0800     		.short	8
 228 0032 03       		.byte	3
 229 0033 23       		.byte	35
ARM GAS  C:\Users\pajoh\AppData\Local\Temp\cctC92Wc.s 			page 8


 230 0034 0000     		.short	0
 231 0036 1076     		.short	30224
 232 0038 0800     		.short	8
 233 003a 04       		.byte	4
 234 003b 23       		.byte	35
 235 003c 0000     		.short	0
 236 003e 2876     		.short	30248
 237 0040 0800     		.short	8
 238 0042 05       		.byte	5
 239 0043 23       		.byte	35
 240 0044 0000     		.short	0
 241 0046 3076     		.short	30256
 242 0048 0500     		.short	5
 243 004a 06       		.byte	6
 244 004b 23       		.byte	35
 245 004c 0000     		.short	0
 246 004e 2070     		.short	28704
 247 0050 0500     		.short	5
 248 0052 07       		.byte	7
 249 0053 23       		.byte	35
 250 0054 0000     		.short	0
 251 0056 3070     		.short	28720
 252 0058 0500     		.short	5
 253 005a 08       		.byte	8
 254 005b 23       		.byte	35
 255 005c 0000     		.short	0
 256 005e 6070     		.short	28768
 257 0060 0500     		.short	5
 258 0062 FE       		.byte	-2
 259 0063 23       		.byte	35
 260 0064 0000     		.short	0
 261 0066 7070     		.short	28784
 262 0068 1900     		.short	25
 263 006a 0A       		.byte	10
 264 006b 22       		.byte	34
 265 006c 0000     		.short	0
 266 006e C849     		.short	18888
 267 0070 3000     		.short	48
 268 0072 0B       		.byte	11
 269 0073 22       		.byte	34
 270 0074 0000     		.short	0
 271 0076 4051     		.short	20800
 272 0078 1000     		.short	16
 273 007a FE       		.byte	-2
 274 007b 22       		.byte	34
 275 007c 0000     		.short	0
 276 007e F051     		.short	20976
 277 0080 0002     		.short	512
 278 0082 0D       		.byte	13
 279 0083 22       		.byte	34
 280 0084 0000     		.short	0
 281 0086 0000     		.short	0
 282 0088 0002     		.short	512
 283 008a 0E       		.byte	14
 284 008b 22       		.byte	34
 285 008c 0000     		.short	0
 286 008e 000E     		.short	3584
ARM GAS  C:\Users\pajoh\AppData\Local\Temp\cctC92Wc.s 			page 9


 287 0090 8001     		.short	384
 288 0092 0F       		.byte	15
 289 0093 22       		.byte	34
 290 0094 0000     		.short	0
 291 0096 0014     		.short	5120
 292 0098 8001     		.short	384
 293 009a 10       		.byte	16
 294 009b 22       		.byte	34
 295 009c 0000     		.short	0
 296 009e 0016     		.short	5632
 297 00a0 8000     		.short	128
 298 00a2 11       		.byte	17
 299 00a3 22       		.byte	34
 300 00a4 0000     		.short	0
 301 00a6 0043     		.short	17152
 302 00a8 8000     		.short	128
 303 00aa FE       		.byte	-2
 304 00ab 22       		.byte	34
 305 00ac 0000     		.short	0
 306 00ae 0047     		.short	18176
 307 00b0 0700     		.short	7
 308 00b2 13       		.byte	19
 309 00b3 23       		.byte	35
 310 00b4 0000     		.short	0
 311 00b6 0052     		.short	20992
 312 00b8 0700     		.short	7
 313 00ba 14       		.byte	20
 314 00bb 23       		.byte	35
 315 00bc 0000     		.short	0
 316 00be 1052     		.short	21008
 317 00c0 0600     		.short	6
 318 00c2 15       		.byte	21
 319 00c3 23       		.byte	35
 320 00c4 0000     		.short	0
 321 00c6 6052     		.short	21088
 322 00c8 0C00     		.short	12
 323 00ca 16       		.byte	22
 324 00cb 23       		.byte	35
 325 00cc 0000     		.short	0
 326 00ce 004F     		.short	20224
 327 00d0 2000     		.short	32
 328 00d2 17       		.byte	23
 329 00d3 23       		.byte	35
 330 00d4 0000     		.short	0
 331 00d6 7064     		.short	25712
 332 00d8 2000     		.short	32
 333 00da FE       		.byte	-2
 334 00db 23       		.byte	35
 335 00dc 0000     		.short	0
 336 00de 7065     		.short	25968
 337 00e0 0800     		.short	8
 338 00e2 19       		.byte	25
 339 00e3 23       		.byte	35
 340 00e4 0000     		.short	0
 341 00e6 0051     		.short	20736
 342 00e8 8000     		.short	128
 343 00ea 1A       		.byte	26
ARM GAS  C:\Users\pajoh\AppData\Local\Temp\cctC92Wc.s 			page 10


 344 00eb 23       		.byte	35
 345 00ec 0000     		.short	0
 346 00ee 0002     		.short	512
 347 00f0 8000     		.short	128
 348 00f2 1B       		.byte	27
 349 00f3 23       		.byte	35
 350 00f4 0000     		.short	0
 351 00f6 8002     		.short	640
 352 00f8 8000     		.short	128
 353 00fa 1C       		.byte	28
 354 00fb 23       		.byte	35
 355 00fc 0000     		.short	0
 356 00fe 0004     		.short	1024
 357 0100 8000     		.short	128
 358 0102 1D       		.byte	29
 359 0103 23       		.byte	35
 360 0104 0000     		.short	0
 361 0106 8004     		.short	1152
 362 0108 8000     		.short	128
 363 010a 1E       		.byte	30
 364 010b 23       		.byte	35
 365 010c 0000     		.short	0
 366 010e 0006     		.short	1536
 367 0110 8000     		.short	128
 368 0112 1F       		.byte	31
 369 0113 23       		.byte	35
 370 0114 0000     		.short	0
 371 0116 8006     		.short	1664
 372 0118 8000     		.short	128
 373 011a 20       		.byte	32
 374 011b 23       		.byte	35
 375 011c 0000     		.short	0
 376 011e 0008     		.short	2048
 377 0120 8000     		.short	128
 378 0122 21       		.byte	33
 379 0123 23       		.byte	35
 380 0124 0000     		.short	0
 381 0126 8008     		.short	2176
 382 0128 8000     		.short	128
 383 012a 22       		.byte	34
 384 012b 23       		.byte	35
 385 012c 0000     		.short	0
 386 012e 000A     		.short	2560
 387 0130 8000     		.short	128
 388 0132 23       		.byte	35
 389 0133 23       		.byte	35
 390 0134 0000     		.short	0
 391 0136 800A     		.short	2688
 392 0138 8000     		.short	128
 393 013a 24       		.byte	36
 394 013b 23       		.byte	35
 395 013c 0000     		.short	0
 396 013e 000C     		.short	3072
 397 0140 8000     		.short	128
 398 0142 25       		.byte	37
 399 0143 23       		.byte	35
 400 0144 0000     		.short	0
ARM GAS  C:\Users\pajoh\AppData\Local\Temp\cctC92Wc.s 			page 11


 401 0146 800C     		.short	3200
 402 0148 8000     		.short	128
 403 014a 26       		.byte	38
 404 014b 23       		.byte	35
 405 014c 0000     		.short	0
 406 014e 0018     		.short	6144
 407 0150 8000     		.short	128
 408 0152 27       		.byte	39
 409 0153 23       		.byte	35
 410 0154 0000     		.short	0
 411 0156 8018     		.short	6272
 412 0158 8000     		.short	128
 413 015a 28       		.byte	40
 414 015b 23       		.byte	35
 415 015c 0000     		.short	0
 416 015e 001A     		.short	6656
 417 0160 8000     		.short	128
 418 0162 29       		.byte	41
 419 0163 23       		.byte	35
 420 0164 0000     		.short	0
 421 0166 801A     		.short	6784
 422 0168 1000     		.short	16
 423 016a 2A       		.byte	42
 424 016b 23       		.byte	35
 425 016c 0000     		.short	0
 426 016e 1050     		.short	20496
 427 0170 1000     		.short	16
 428 0172 2B       		.byte	43
 429 0173 23       		.byte	35
 430 0174 0000     		.short	0
 431 0176 0050     		.short	20480
 432 0178 8000     		.short	128
 433 017a 2C       		.byte	44
 434 017b 23       		.byte	35
 435 017c 0000     		.short	0
 436 017e 004D     		.short	19712
 437 0180 8000     		.short	128
 438 0182 2D       		.byte	45
 439 0183 23       		.byte	35
 440 0184 0000     		.short	0
 441 0186 804D     		.short	19840
 442 0188 8000     		.short	128
 443 018a 2E       		.byte	46
 444 018b 23       		.byte	35
 445 018c 0000     		.short	0
 446 018e 004C     		.short	19456
 447 0190 8000     		.short	128
 448 0192 2F       		.byte	47
 449 0193 23       		.byte	35
 450 0194 0000     		.short	0
 451 0196 804C     		.short	19584
 452 0198 8000     		.short	128
 453 019a 30       		.byte	48
 454 019b 23       		.byte	35
 455 019c 0000     		.short	0
 456 019e 8047     		.short	18304
 457 01a0 8000     		.short	128
ARM GAS  C:\Users\pajoh\AppData\Local\Temp\cctC92Wc.s 			page 12


 458 01a2 31       		.byte	49
 459 01a3 23       		.byte	35
 460 01a4 0000     		.short	0
 461 01a6 0046     		.short	17920
 462 01a8 8000     		.short	128
 463 01aa 32       		.byte	50
 464 01ab 23       		.byte	35
 465 01ac 0000     		.short	0
 466 01ae 8046     		.short	18048
 467 01b0 8000     		.short	128
 468 01b2 33       		.byte	51
 469 01b3 23       		.byte	35
 470 01b4 0000     		.short	0
 471 01b6 0045     		.short	17664
 472 01b8 8000     		.short	128
 473 01ba 34       		.byte	52
 474 01bb 23       		.byte	35
 475 01bc 0000     		.short	0
 476 01be 8045     		.short	17792
 477 01c0 8000     		.short	128
 478 01c2 35       		.byte	53
 479 01c3 23       		.byte	35
 480 01c4 0000     		.short	0
 481 01c6 0044     		.short	17408
 482 01c8 8000     		.short	128
 483 01ca 36       		.byte	54
 484 01cb 23       		.byte	35
 485 01cc 0000     		.short	0
 486 01ce 8044     		.short	17536
 487 01d0 8000     		.short	128
 488 01d2 37       		.byte	55
 489 01d3 23       		.byte	35
 490 01d4 0000     		.short	0
 491 01d6 001B     		.short	6912
 492 01d8 8000     		.short	128
 493 01da 38       		.byte	56
 494 01db 23       		.byte	35
 495 01dc 0000     		.short	0
 496 01de 801B     		.short	7040
 497 01e0 8000     		.short	128
 498 01e2 39       		.byte	57
 499 01e3 23       		.byte	35
 500 01e4 0000     		.short	0
 501 01e6 8015     		.short	5504
 502 01e8 8000     		.short	128
 503 01ea 3A       		.byte	58
 504 01eb 23       		.byte	35
 505 01ec 0000     		.short	0
 506 01ee 0019     		.short	6400
 507 01f0 8000     		.short	128
 508 01f2 3B       		.byte	59
 509 01f3 23       		.byte	35
 510 01f4 0000     		.short	0
 511 01f6 8019     		.short	6528
 512 01f8 8000     		.short	128
 513 01fa 3C       		.byte	60
 514 01fb 23       		.byte	35
ARM GAS  C:\Users\pajoh\AppData\Local\Temp\cctC92Wc.s 			page 13


 515 01fc 0000     		.short	0
 516 01fe 8017     		.short	6016
 517 0200 8000     		.short	128
 518 0202 3D       		.byte	61
 519 0203 23       		.byte	35
 520 0204 0000     		.short	0
 521 0206 0009     		.short	2304
 522 0208 8000     		.short	128
 523 020a 3E       		.byte	62
 524 020b 23       		.byte	35
 525 020c 0000     		.short	0
 526 020e 8009     		.short	2432
 527 0210 8000     		.short	128
 528 0212 3F       		.byte	63
 529 0213 23       		.byte	35
 530 0214 0000     		.short	0
 531 0216 0007     		.short	1792
 532 0218 8000     		.short	128
 533 021a 40       		.byte	64
 534 021b 23       		.byte	35
 535 021c 0000     		.short	0
 536 021e 8007     		.short	1920
 537 0220 8000     		.short	128
 538 0222 41       		.byte	65
 539 0223 23       		.byte	35
 540 0224 0000     		.short	0
 541 0226 000B     		.short	2816
 542 0228 8000     		.short	128
 543 022a 42       		.byte	66
 544 022b 23       		.byte	35
 545 022c 0000     		.short	0
 546 022e 800B     		.short	2944
 547 0230 8000     		.short	128
 548 0232 43       		.byte	67
 549 0233 23       		.byte	35
 550 0234 0000     		.short	0
 551 0236 0005     		.short	1280
 552 0238 8000     		.short	128
 553 023a 44       		.byte	68
 554 023b 23       		.byte	35
 555 023c 0000     		.short	0
 556 023e 8005     		.short	1408
 557 0240 8000     		.short	128
 558 0242 45       		.byte	69
 559 0243 23       		.byte	35
 560 0244 0000     		.short	0
 561 0246 000D     		.short	3328
 562 0248 8000     		.short	128
 563 024a 46       		.byte	70
 564 024b 23       		.byte	35
 565 024c 0000     		.short	0
 566 024e 800D     		.short	3456
 567 0250 8000     		.short	128
 568 0252 47       		.byte	71
 569 0253 23       		.byte	35
 570 0254 0000     		.short	0
 571 0256 0003     		.short	768
ARM GAS  C:\Users\pajoh\AppData\Local\Temp\cctC92Wc.s 			page 14


 572 0258 8000     		.short	128
 573 025a 48       		.byte	72
 574 025b 23       		.byte	35
 575 025c 0000     		.short	0
 576 025e 8003     		.short	896
 577 0260 8000     		.short	128
 578 0262 49       		.byte	73
 579 0263 23       		.byte	35
 580 0264 0000     		.short	0
 581 0266 0049     		.short	18688
 582 0268 8000     		.short	128
 583 026a 4A       		.byte	74
 584 026b 23       		.byte	35
 585 026c 0000     		.short	0
 586 026e 8049     		.short	18816
 587 0270 8000     		.short	128
 588 0272 4B       		.byte	75
 589 0273 23       		.byte	35
 590 0274 0000     		.short	0
 591 0276 0048     		.short	18432
 592 0278 8000     		.short	128
 593 027a 4C       		.byte	76
 594 027b 23       		.byte	35
 595 027c 0000     		.short	0
 596 027e 8048     		.short	18560
 597 0280 8000     		.short	128
 598 0282 4D       		.byte	77
 599 0283 23       		.byte	35
 600 0284 0000     		.short	0
 601 0286 8043     		.short	17280
 602 0288 8000     		.short	128
 603 028a 4E       		.byte	78
 604 028b 23       		.byte	35
 605 028c 0000     		.short	0
 606 028e 0042     		.short	16896
 607 0290 8000     		.short	128
 608 0292 4F       		.byte	79
 609 0293 23       		.byte	35
 610 0294 0000     		.short	0
 611 0296 8042     		.short	17024
 612 0298 8000     		.short	128
 613 029a 50       		.byte	80
 614 029b 23       		.byte	35
 615 029c 0000     		.short	0
 616 029e 0041     		.short	16640
 617 02a0 8000     		.short	128
 618 02a2 51       		.byte	81
 619 02a3 23       		.byte	35
 620 02a4 0000     		.short	0
 621 02a6 8041     		.short	16768
 622 02a8 8000     		.short	128
 623 02aa 52       		.byte	82
 624 02ab 23       		.byte	35
 625 02ac 0000     		.short	0
 626 02ae 0040     		.short	16384
 627 02b0 8000     		.short	128
 628 02b2 FE       		.byte	-2
ARM GAS  C:\Users\pajoh\AppData\Local\Temp\cctC92Wc.s 			page 15


 629 02b3 23       		.byte	35
 630 02b4 0000     		.short	0
 631 02b6 8040     		.short	16512
 632              		.section	.text.cfg_dma_init,"ax",%progbits
 633              		.align	2
 634              		.thumb
 635              		.thumb_func
 636              		.type	cfg_dma_init, %function
 637              	cfg_dma_init:
 638              	.LFB4:
 171:Generated_Source\PSoC5/cyfitter_cfg.c **** #endif /* CY_CFG_CLOCK_STARTUP_ERROR_CALLBACK */
 172:Generated_Source\PSoC5/cyfitter_cfg.c **** }
 173:Generated_Source\PSoC5/cyfitter_cfg.c **** #endif
 174:Generated_Source\PSoC5/cyfitter_cfg.c **** 
 175:Generated_Source\PSoC5/cyfitter_cfg.c **** /* IOPORT_0 Address: CYDEV_PRTDSI_PRT0_BASE Size (bytes): 7 */
 176:Generated_Source\PSoC5/cyfitter_cfg.c **** #define BS_IOPORT_0_VAL ((const uint8 CYFAR *)0x48000000u)
 177:Generated_Source\PSoC5/cyfitter_cfg.c **** 
 178:Generated_Source\PSoC5/cyfitter_cfg.c **** /* IOPORT_2 Address: CYDEV_PRTDSI_PRT2_BASE Size (bytes): 7 */
 179:Generated_Source\PSoC5/cyfitter_cfg.c **** #define BS_IOPORT_2_VAL ((const uint8 CYFAR *)0x48000008u)
 180:Generated_Source\PSoC5/cyfitter_cfg.c **** 
 181:Generated_Source\PSoC5/cyfitter_cfg.c **** /* IOPORT_7 Address: CYDEV_PRTDSI_PRT12_BASE Size (bytes): 6 */
 182:Generated_Source\PSoC5/cyfitter_cfg.c **** #define BS_IOPORT_7_VAL ((const uint8 CYFAR *)0x48000010u)
 183:Generated_Source\PSoC5/cyfitter_cfg.c **** 
 184:Generated_Source\PSoC5/cyfitter_cfg.c **** /* IDMUX_IRQ Address: CYREG_IDMUX_IRQ_CTL0 Size (bytes): 8 */
 185:Generated_Source\PSoC5/cyfitter_cfg.c **** #define BS_IDMUX_IRQ_VAL ((const uint8 CYFAR *)0x48000018u)
 186:Generated_Source\PSoC5/cyfitter_cfg.c **** 
 187:Generated_Source\PSoC5/cyfitter_cfg.c **** /* TMR0 Address: CYREG_TMR0_CFG0 Size (bytes): 12 */
 188:Generated_Source\PSoC5/cyfitter_cfg.c **** #define BS_TMR0_VAL ((const uint8 CYFAR *)0x48000020u)
 189:Generated_Source\PSoC5/cyfitter_cfg.c **** 
 190:Generated_Source\PSoC5/cyfitter_cfg.c **** /* UDB_1_4_1_CONFIG Address: CYDEV_UCFG_B0_P1_U0_BASE Size (bytes): 128 */
 191:Generated_Source\PSoC5/cyfitter_cfg.c **** #define BS_UDB_1_4_1_CONFIG_VAL ((const uint8 CYFAR *)0x4800002Cu)
 192:Generated_Source\PSoC5/cyfitter_cfg.c **** 
 193:Generated_Source\PSoC5/cyfitter_cfg.c **** /* UDB_1_4_0_CONFIG Address: CYDEV_UCFG_B0_P1_U1_BASE Size (bytes): 128 */
 194:Generated_Source\PSoC5/cyfitter_cfg.c **** #define BS_UDB_1_4_0_CONFIG_VAL ((const uint8 CYFAR *)0x480000ACu)
 195:Generated_Source\PSoC5/cyfitter_cfg.c **** 
 196:Generated_Source\PSoC5/cyfitter_cfg.c **** /* UDB_1_3_0_CONFIG Address: CYDEV_UCFG_B0_P2_U0_BASE Size (bytes): 128 */
 197:Generated_Source\PSoC5/cyfitter_cfg.c **** #define BS_UDB_1_3_0_CONFIG_VAL ((const uint8 CYFAR *)0x4800012Cu)
 198:Generated_Source\PSoC5/cyfitter_cfg.c **** 
 199:Generated_Source\PSoC5/cyfitter_cfg.c **** /* UDB_1_3_1_CONFIG Address: CYDEV_UCFG_B0_P2_U1_BASE Size (bytes): 128 */
 200:Generated_Source\PSoC5/cyfitter_cfg.c **** #define BS_UDB_1_3_1_CONFIG_VAL ((const uint8 CYFAR *)0x480001ACu)
 201:Generated_Source\PSoC5/cyfitter_cfg.c **** 
 202:Generated_Source\PSoC5/cyfitter_cfg.c **** /* UDB_1_2_1_CONFIG Address: CYDEV_UCFG_B0_P3_U0_BASE Size (bytes): 128 */
 203:Generated_Source\PSoC5/cyfitter_cfg.c **** #define BS_UDB_1_2_1_CONFIG_VAL ((const uint8 CYFAR *)0x4800022Cu)
 204:Generated_Source\PSoC5/cyfitter_cfg.c **** 
 205:Generated_Source\PSoC5/cyfitter_cfg.c **** /* UDB_1_2_0_CONFIG Address: CYDEV_UCFG_B0_P3_U1_BASE Size (bytes): 128 */
 206:Generated_Source\PSoC5/cyfitter_cfg.c **** #define BS_UDB_1_2_0_CONFIG_VAL ((const uint8 CYFAR *)0x480002ACu)
 207:Generated_Source\PSoC5/cyfitter_cfg.c **** 
 208:Generated_Source\PSoC5/cyfitter_cfg.c **** /* UDB_0_2_1_CONFIG Address: CYDEV_UCFG_B0_P4_U0_BASE Size (bytes): 128 */
 209:Generated_Source\PSoC5/cyfitter_cfg.c **** #define BS_UDB_0_2_1_CONFIG_VAL ((const uint8 CYFAR *)0x4800032Cu)
 210:Generated_Source\PSoC5/cyfitter_cfg.c **** 
 211:Generated_Source\PSoC5/cyfitter_cfg.c **** /* UDB_0_2_0_CONFIG Address: CYDEV_UCFG_B0_P4_U1_BASE Size (bytes): 128 */
 212:Generated_Source\PSoC5/cyfitter_cfg.c **** #define BS_UDB_0_2_0_CONFIG_VAL ((const uint8 CYFAR *)0x480003ACu)
 213:Generated_Source\PSoC5/cyfitter_cfg.c **** 
 214:Generated_Source\PSoC5/cyfitter_cfg.c **** /* UDB_0_3_0_CONFIG Address: CYDEV_UCFG_B0_P5_U0_BASE Size (bytes): 128 */
 215:Generated_Source\PSoC5/cyfitter_cfg.c **** #define BS_UDB_0_3_0_CONFIG_VAL ((const uint8 CYFAR *)0x4800042Cu)
 216:Generated_Source\PSoC5/cyfitter_cfg.c **** 
 217:Generated_Source\PSoC5/cyfitter_cfg.c **** /* UDB_0_3_1_CONFIG Address: CYDEV_UCFG_B0_P5_U1_BASE Size (bytes): 128 */
ARM GAS  C:\Users\pajoh\AppData\Local\Temp\cctC92Wc.s 			page 16


 218:Generated_Source\PSoC5/cyfitter_cfg.c **** #define BS_UDB_0_3_1_CONFIG_VAL ((const uint8 CYFAR *)0x480004ACu)
 219:Generated_Source\PSoC5/cyfitter_cfg.c **** 
 220:Generated_Source\PSoC5/cyfitter_cfg.c **** /* UDB_0_4_1_CONFIG Address: CYDEV_UCFG_B0_P6_U0_BASE Size (bytes): 128 */
 221:Generated_Source\PSoC5/cyfitter_cfg.c **** #define BS_UDB_0_4_1_CONFIG_VAL ((const uint8 CYFAR *)0x4800052Cu)
 222:Generated_Source\PSoC5/cyfitter_cfg.c **** 
 223:Generated_Source\PSoC5/cyfitter_cfg.c **** /* UDB_0_4_0_CONFIG Address: CYDEV_UCFG_B0_P6_U1_BASE Size (bytes): 128 */
 224:Generated_Source\PSoC5/cyfitter_cfg.c **** #define BS_UDB_0_4_0_CONFIG_VAL ((const uint8 CYFAR *)0x480005ACu)
 225:Generated_Source\PSoC5/cyfitter_cfg.c **** 
 226:Generated_Source\PSoC5/cyfitter_cfg.c **** /* UDB_0_1_1_CONFIG Address: CYDEV_UCFG_B1_P4_U0_BASE Size (bytes): 128 */
 227:Generated_Source\PSoC5/cyfitter_cfg.c **** #define BS_UDB_0_1_1_CONFIG_VAL ((const uint8 CYFAR *)0x4800062Cu)
 228:Generated_Source\PSoC5/cyfitter_cfg.c **** 
 229:Generated_Source\PSoC5/cyfitter_cfg.c **** /* UDB_0_1_0_CONFIG Address: CYDEV_UCFG_B1_P4_U1_BASE Size (bytes): 128 */
 230:Generated_Source\PSoC5/cyfitter_cfg.c **** #define BS_UDB_0_1_0_CONFIG_VAL ((const uint8 CYFAR *)0x480006ACu)
 231:Generated_Source\PSoC5/cyfitter_cfg.c **** 
 232:Generated_Source\PSoC5/cyfitter_cfg.c **** /* UDB_0_0_0_CONFIG Address: CYDEV_UCFG_B1_P5_U0_BASE Size (bytes): 128 */
 233:Generated_Source\PSoC5/cyfitter_cfg.c **** #define BS_UDB_0_0_0_CONFIG_VAL ((const uint8 CYFAR *)0x4800072Cu)
 234:Generated_Source\PSoC5/cyfitter_cfg.c **** 
 235:Generated_Source\PSoC5/cyfitter_cfg.c **** /* UDB_0_0_1_CONFIG Address: CYDEV_UCFG_B1_P5_U1_BASE Size (bytes): 128 */
 236:Generated_Source\PSoC5/cyfitter_cfg.c **** #define BS_UDB_0_0_1_CONFIG_VAL ((const uint8 CYFAR *)0x480007ACu)
 237:Generated_Source\PSoC5/cyfitter_cfg.c **** 
 238:Generated_Source\PSoC5/cyfitter_cfg.c **** /* UWRK_B0_WRK_STATCTL_BITS Address: CYDEV_UWRK_UWRK8_B0_BASE + 0x00000070u Size (bytes): 32 */
 239:Generated_Source\PSoC5/cyfitter_cfg.c **** #define BS_UWRK_B0_WRK_STATCTL_BITS_VAL ((const uint8 CYFAR *)0x4800082Cu)
 240:Generated_Source\PSoC5/cyfitter_cfg.c **** 
 241:Generated_Source\PSoC5/cyfitter_cfg.c **** /* UWRK_B1_WRK_STATCTL_BITS Address: CYDEV_UWRK_UWRK8_B1_BASE + 0x00000070u Size (bytes): 32 */
 242:Generated_Source\PSoC5/cyfitter_cfg.c **** #define BS_UWRK_B1_WRK_STATCTL_BITS_VAL ((const uint8 CYFAR *)0x4800084Cu)
 243:Generated_Source\PSoC5/cyfitter_cfg.c **** 
 244:Generated_Source\PSoC5/cyfitter_cfg.c **** /* UCFG_BCTL1 Address: CYREG_BCTL1_MDCLK_EN Size (bytes): 16 */
 245:Generated_Source\PSoC5/cyfitter_cfg.c **** #define BS_UCFG_BCTL1_VAL ((const uint8 CYFAR *)0x4800086Cu)
 246:Generated_Source\PSoC5/cyfitter_cfg.c **** 
 247:Generated_Source\PSoC5/cyfitter_cfg.c **** /* UCFG_BCTL0 Address: CYREG_BCTL0_MDCLK_EN Size (bytes): 16 */
 248:Generated_Source\PSoC5/cyfitter_cfg.c **** #define BS_UCFG_BCTL0_VAL ((const uint8 CYFAR *)0x4800087Cu)
 249:Generated_Source\PSoC5/cyfitter_cfg.c **** 
 250:Generated_Source\PSoC5/cyfitter_cfg.c **** /* DSISWITCH_0_0 Address: CYDEV_UCFG_DSI13_BASE Size (bytes): 128 */
 251:Generated_Source\PSoC5/cyfitter_cfg.c **** #define BS_DSISWITCH_0_0_VAL ((const uint8 CYFAR *)0x4800088Cu)
 252:Generated_Source\PSoC5/cyfitter_cfg.c **** 
 253:Generated_Source\PSoC5/cyfitter_cfg.c **** /* DSI0_0_HV_ROUTING Address: CYDEV_UCFG_DSI13_BASE + 0x00000080u Size (bytes): 128 */
 254:Generated_Source\PSoC5/cyfitter_cfg.c **** #define BS_DSI0_0_HV_ROUTING_VAL ((const uint8 CYFAR *)0x4800090Cu)
 255:Generated_Source\PSoC5/cyfitter_cfg.c **** 
 256:Generated_Source\PSoC5/cyfitter_cfg.c **** /* DSISWITCH_0_1 Address: CYDEV_UCFG_DSI12_BASE Size (bytes): 128 */
 257:Generated_Source\PSoC5/cyfitter_cfg.c **** #define BS_DSISWITCH_0_1_VAL ((const uint8 CYFAR *)0x4800098Cu)
 258:Generated_Source\PSoC5/cyfitter_cfg.c **** 
 259:Generated_Source\PSoC5/cyfitter_cfg.c **** /* DSI0_1_HV_ROUTING Address: CYDEV_UCFG_DSI12_BASE + 0x00000080u Size (bytes): 128 */
 260:Generated_Source\PSoC5/cyfitter_cfg.c **** #define BS_DSI0_1_HV_ROUTING_VAL ((const uint8 CYFAR *)0x48000A0Cu)
 261:Generated_Source\PSoC5/cyfitter_cfg.c **** 
 262:Generated_Source\PSoC5/cyfitter_cfg.c **** /* DSI0_2_HV_ROUTING Address: CYDEV_UCFG_DSI7_BASE + 0x00000080u Size (bytes): 128 */
 263:Generated_Source\PSoC5/cyfitter_cfg.c **** #define BS_DSI0_2_HV_ROUTING_VAL ((const uint8 CYFAR *)0x48000A8Cu)
 264:Generated_Source\PSoC5/cyfitter_cfg.c **** 
 265:Generated_Source\PSoC5/cyfitter_cfg.c **** /* DSISWITCH_0_3 Address: CYDEV_UCFG_DSI6_BASE Size (bytes): 128 */
 266:Generated_Source\PSoC5/cyfitter_cfg.c **** #define BS_DSISWITCH_0_3_VAL ((const uint8 CYFAR *)0x48000B0Cu)
 267:Generated_Source\PSoC5/cyfitter_cfg.c **** 
 268:Generated_Source\PSoC5/cyfitter_cfg.c **** /* DSI0_3_HV_ROUTING Address: CYDEV_UCFG_DSI6_BASE + 0x00000080u Size (bytes): 128 */
 269:Generated_Source\PSoC5/cyfitter_cfg.c **** #define BS_DSI0_3_HV_ROUTING_VAL ((const uint8 CYFAR *)0x48000B8Cu)
 270:Generated_Source\PSoC5/cyfitter_cfg.c **** 
 271:Generated_Source\PSoC5/cyfitter_cfg.c **** /* DSISWITCH_0_4 Address: CYDEV_UCFG_DSI5_BASE Size (bytes): 128 */
 272:Generated_Source\PSoC5/cyfitter_cfg.c **** #define BS_DSISWITCH_0_4_VAL ((const uint8 CYFAR *)0x48000C0Cu)
 273:Generated_Source\PSoC5/cyfitter_cfg.c **** 
 274:Generated_Source\PSoC5/cyfitter_cfg.c **** /* DSI0_4_HV_ROUTING Address: CYDEV_UCFG_DSI5_BASE + 0x00000080u Size (bytes): 128 */
ARM GAS  C:\Users\pajoh\AppData\Local\Temp\cctC92Wc.s 			page 17


 275:Generated_Source\PSoC5/cyfitter_cfg.c **** #define BS_DSI0_4_HV_ROUTING_VAL ((const uint8 CYFAR *)0x48000C8Cu)
 276:Generated_Source\PSoC5/cyfitter_cfg.c **** 
 277:Generated_Source\PSoC5/cyfitter_cfg.c **** /* DSISWITCH_0_5 Address: CYDEV_UCFG_DSI4_BASE Size (bytes): 128 */
 278:Generated_Source\PSoC5/cyfitter_cfg.c **** #define BS_DSISWITCH_0_5_VAL ((const uint8 CYFAR *)0x48000D0Cu)
 279:Generated_Source\PSoC5/cyfitter_cfg.c **** 
 280:Generated_Source\PSoC5/cyfitter_cfg.c **** /* DSI0_5_HV_ROUTING Address: CYDEV_UCFG_DSI4_BASE + 0x00000080u Size (bytes): 128 */
 281:Generated_Source\PSoC5/cyfitter_cfg.c **** #define BS_DSI0_5_HV_ROUTING_VAL ((const uint8 CYFAR *)0x48000D8Cu)
 282:Generated_Source\PSoC5/cyfitter_cfg.c **** 
 283:Generated_Source\PSoC5/cyfitter_cfg.c **** /* UDBSWITCH_0_0 Address: CYDEV_UCFG_B1_P5_ROUTE_BASE Size (bytes): 128 */
 284:Generated_Source\PSoC5/cyfitter_cfg.c **** #define BS_UDBSWITCH_0_0_VAL ((const uint8 CYFAR *)0x48000E0Cu)
 285:Generated_Source\PSoC5/cyfitter_cfg.c **** 
 286:Generated_Source\PSoC5/cyfitter_cfg.c **** /* UDB_1_0_HV_ROUTING Address: CYDEV_UCFG_B1_P5_ROUTE_BASE + 0x00000080u Size (bytes): 128 */
 287:Generated_Source\PSoC5/cyfitter_cfg.c **** #define BS_UDB_1_0_HV_ROUTING_VAL ((const uint8 CYFAR *)0x48000E8Cu)
 288:Generated_Source\PSoC5/cyfitter_cfg.c **** 
 289:Generated_Source\PSoC5/cyfitter_cfg.c **** /* UDB_2_0_HV_ROUTING Address: CYDEV_UCFG_B1_P2_ROUTE_BASE + 0x00000080u Size (bytes): 128 */
 290:Generated_Source\PSoC5/cyfitter_cfg.c **** #define BS_UDB_2_0_HV_ROUTING_VAL ((const uint8 CYFAR *)0x48000F0Cu)
 291:Generated_Source\PSoC5/cyfitter_cfg.c **** 
 292:Generated_Source\PSoC5/cyfitter_cfg.c **** /* UDBSWITCH_0_1 Address: CYDEV_UCFG_B1_P4_ROUTE_BASE Size (bytes): 128 */
 293:Generated_Source\PSoC5/cyfitter_cfg.c **** #define BS_UDBSWITCH_0_1_VAL ((const uint8 CYFAR *)0x48000F8Cu)
 294:Generated_Source\PSoC5/cyfitter_cfg.c **** 
 295:Generated_Source\PSoC5/cyfitter_cfg.c **** /* UDB_1_1_HV_ROUTING Address: CYDEV_UCFG_B1_P4_ROUTE_BASE + 0x00000080u Size (bytes): 128 */
 296:Generated_Source\PSoC5/cyfitter_cfg.c **** #define BS_UDB_1_1_HV_ROUTING_VAL ((const uint8 CYFAR *)0x4800100Cu)
 297:Generated_Source\PSoC5/cyfitter_cfg.c **** 
 298:Generated_Source\PSoC5/cyfitter_cfg.c **** /* UDB_2_1_HV_ROUTING Address: CYDEV_UCFG_B1_P3_ROUTE_BASE + 0x00000080u Size (bytes): 128 */
 299:Generated_Source\PSoC5/cyfitter_cfg.c **** #define BS_UDB_2_1_HV_ROUTING_VAL ((const uint8 CYFAR *)0x4800108Cu)
 300:Generated_Source\PSoC5/cyfitter_cfg.c **** 
 301:Generated_Source\PSoC5/cyfitter_cfg.c **** /* UDBSWITCH_0_2 Address: CYDEV_UCFG_B0_P4_ROUTE_BASE Size (bytes): 128 */
 302:Generated_Source\PSoC5/cyfitter_cfg.c **** #define BS_UDBSWITCH_0_2_VAL ((const uint8 CYFAR *)0x4800110Cu)
 303:Generated_Source\PSoC5/cyfitter_cfg.c **** 
 304:Generated_Source\PSoC5/cyfitter_cfg.c **** /* UDB_1_2_HV_ROUTING Address: CYDEV_UCFG_B0_P4_ROUTE_BASE + 0x00000080u Size (bytes): 128 */
 305:Generated_Source\PSoC5/cyfitter_cfg.c **** #define BS_UDB_1_2_HV_ROUTING_VAL ((const uint8 CYFAR *)0x4800118Cu)
 306:Generated_Source\PSoC5/cyfitter_cfg.c **** 
 307:Generated_Source\PSoC5/cyfitter_cfg.c **** /* UDBSWITCH_1_2 Address: CYDEV_UCFG_B0_P3_ROUTE_BASE Size (bytes): 128 */
 308:Generated_Source\PSoC5/cyfitter_cfg.c **** #define BS_UDBSWITCH_1_2_VAL ((const uint8 CYFAR *)0x4800120Cu)
 309:Generated_Source\PSoC5/cyfitter_cfg.c **** 
 310:Generated_Source\PSoC5/cyfitter_cfg.c **** /* UDB_2_2_HV_ROUTING Address: CYDEV_UCFG_B0_P3_ROUTE_BASE + 0x00000080u Size (bytes): 128 */
 311:Generated_Source\PSoC5/cyfitter_cfg.c **** #define BS_UDB_2_2_HV_ROUTING_VAL ((const uint8 CYFAR *)0x4800128Cu)
 312:Generated_Source\PSoC5/cyfitter_cfg.c **** 
 313:Generated_Source\PSoC5/cyfitter_cfg.c **** /* UDBSWITCH_0_3 Address: CYDEV_UCFG_B0_P5_ROUTE_BASE Size (bytes): 128 */
 314:Generated_Source\PSoC5/cyfitter_cfg.c **** #define BS_UDBSWITCH_0_3_VAL ((const uint8 CYFAR *)0x4800130Cu)
 315:Generated_Source\PSoC5/cyfitter_cfg.c **** 
 316:Generated_Source\PSoC5/cyfitter_cfg.c **** /* UDB_1_3_HV_ROUTING Address: CYDEV_UCFG_B0_P5_ROUTE_BASE + 0x00000080u Size (bytes): 128 */
 317:Generated_Source\PSoC5/cyfitter_cfg.c **** #define BS_UDB_1_3_HV_ROUTING_VAL ((const uint8 CYFAR *)0x4800138Cu)
 318:Generated_Source\PSoC5/cyfitter_cfg.c **** 
 319:Generated_Source\PSoC5/cyfitter_cfg.c **** /* UDBSWITCH_1_3 Address: CYDEV_UCFG_B0_P2_ROUTE_BASE Size (bytes): 128 */
 320:Generated_Source\PSoC5/cyfitter_cfg.c **** #define BS_UDBSWITCH_1_3_VAL ((const uint8 CYFAR *)0x4800140Cu)
 321:Generated_Source\PSoC5/cyfitter_cfg.c **** 
 322:Generated_Source\PSoC5/cyfitter_cfg.c **** /* UDB_2_3_HV_ROUTING Address: CYDEV_UCFG_B0_P2_ROUTE_BASE + 0x00000080u Size (bytes): 128 */
 323:Generated_Source\PSoC5/cyfitter_cfg.c **** #define BS_UDB_2_3_HV_ROUTING_VAL ((const uint8 CYFAR *)0x4800148Cu)
 324:Generated_Source\PSoC5/cyfitter_cfg.c **** 
 325:Generated_Source\PSoC5/cyfitter_cfg.c **** /* UDBSWITCH_0_4 Address: CYDEV_UCFG_B0_P6_ROUTE_BASE Size (bytes): 128 */
 326:Generated_Source\PSoC5/cyfitter_cfg.c **** #define BS_UDBSWITCH_0_4_VAL ((const uint8 CYFAR *)0x4800150Cu)
 327:Generated_Source\PSoC5/cyfitter_cfg.c **** 
 328:Generated_Source\PSoC5/cyfitter_cfg.c **** /* UDB_1_4_HV_ROUTING Address: CYDEV_UCFG_B0_P6_ROUTE_BASE + 0x00000080u Size (bytes): 128 */
 329:Generated_Source\PSoC5/cyfitter_cfg.c **** #define BS_UDB_1_4_HV_ROUTING_VAL ((const uint8 CYFAR *)0x4800158Cu)
 330:Generated_Source\PSoC5/cyfitter_cfg.c **** 
 331:Generated_Source\PSoC5/cyfitter_cfg.c **** /* UDBSWITCH_1_4 Address: CYDEV_UCFG_B0_P1_ROUTE_BASE Size (bytes): 128 */
ARM GAS  C:\Users\pajoh\AppData\Local\Temp\cctC92Wc.s 			page 18


 332:Generated_Source\PSoC5/cyfitter_cfg.c **** #define BS_UDBSWITCH_1_4_VAL ((const uint8 CYFAR *)0x4800160Cu)
 333:Generated_Source\PSoC5/cyfitter_cfg.c **** 
 334:Generated_Source\PSoC5/cyfitter_cfg.c **** /* UDB_2_4_HV_ROUTING Address: CYDEV_UCFG_B0_P1_ROUTE_BASE + 0x00000080u Size (bytes): 128 */
 335:Generated_Source\PSoC5/cyfitter_cfg.c **** #define BS_UDB_2_4_HV_ROUTING_VAL ((const uint8 CYFAR *)0x4800168Cu)
 336:Generated_Source\PSoC5/cyfitter_cfg.c **** 
 337:Generated_Source\PSoC5/cyfitter_cfg.c **** /* DSISWITCH_1_0 Address: CYDEV_UCFG_DSI9_BASE Size (bytes): 128 */
 338:Generated_Source\PSoC5/cyfitter_cfg.c **** #define BS_DSISWITCH_1_0_VAL ((const uint8 CYFAR *)0x4800170Cu)
 339:Generated_Source\PSoC5/cyfitter_cfg.c **** 
 340:Generated_Source\PSoC5/cyfitter_cfg.c **** /* DSI3_0_HV_ROUTING Address: CYDEV_UCFG_DSI9_BASE + 0x00000080u Size (bytes): 128 */
 341:Generated_Source\PSoC5/cyfitter_cfg.c **** #define BS_DSI3_0_HV_ROUTING_VAL ((const uint8 CYFAR *)0x4800178Cu)
 342:Generated_Source\PSoC5/cyfitter_cfg.c **** 
 343:Generated_Source\PSoC5/cyfitter_cfg.c **** /* DSISWITCH_1_1 Address: CYDEV_UCFG_DSI8_BASE Size (bytes): 128 */
 344:Generated_Source\PSoC5/cyfitter_cfg.c **** #define BS_DSISWITCH_1_1_VAL ((const uint8 CYFAR *)0x4800180Cu)
 345:Generated_Source\PSoC5/cyfitter_cfg.c **** 
 346:Generated_Source\PSoC5/cyfitter_cfg.c **** /* DSI3_1_HV_ROUTING Address: CYDEV_UCFG_DSI8_BASE + 0x00000080u Size (bytes): 128 */
 347:Generated_Source\PSoC5/cyfitter_cfg.c **** #define BS_DSI3_1_HV_ROUTING_VAL ((const uint8 CYFAR *)0x4800188Cu)
 348:Generated_Source\PSoC5/cyfitter_cfg.c **** 
 349:Generated_Source\PSoC5/cyfitter_cfg.c **** /* DSI3_2_HV_ROUTING Address: CYDEV_UCFG_DSI3_BASE + 0x00000080u Size (bytes): 128 */
 350:Generated_Source\PSoC5/cyfitter_cfg.c **** #define BS_DSI3_2_HV_ROUTING_VAL ((const uint8 CYFAR *)0x4800190Cu)
 351:Generated_Source\PSoC5/cyfitter_cfg.c **** 
 352:Generated_Source\PSoC5/cyfitter_cfg.c **** /* DSISWITCH_1_3 Address: CYDEV_UCFG_DSI2_BASE Size (bytes): 128 */
 353:Generated_Source\PSoC5/cyfitter_cfg.c **** #define BS_DSISWITCH_1_3_VAL ((const uint8 CYFAR *)0x4800198Cu)
 354:Generated_Source\PSoC5/cyfitter_cfg.c **** 
 355:Generated_Source\PSoC5/cyfitter_cfg.c **** /* DSI3_3_HV_ROUTING Address: CYDEV_UCFG_DSI2_BASE + 0x00000080u Size (bytes): 128 */
 356:Generated_Source\PSoC5/cyfitter_cfg.c **** #define BS_DSI3_3_HV_ROUTING_VAL ((const uint8 CYFAR *)0x48001A0Cu)
 357:Generated_Source\PSoC5/cyfitter_cfg.c **** 
 358:Generated_Source\PSoC5/cyfitter_cfg.c **** /* DSISWITCH_1_4 Address: CYDEV_UCFG_DSI1_BASE Size (bytes): 128 */
 359:Generated_Source\PSoC5/cyfitter_cfg.c **** #define BS_DSISWITCH_1_4_VAL ((const uint8 CYFAR *)0x48001A8Cu)
 360:Generated_Source\PSoC5/cyfitter_cfg.c **** 
 361:Generated_Source\PSoC5/cyfitter_cfg.c **** /* DSI3_4_HV_ROUTING Address: CYDEV_UCFG_DSI1_BASE + 0x00000080u Size (bytes): 128 */
 362:Generated_Source\PSoC5/cyfitter_cfg.c **** #define BS_DSI3_4_HV_ROUTING_VAL ((const uint8 CYFAR *)0x48001B0Cu)
 363:Generated_Source\PSoC5/cyfitter_cfg.c **** 
 364:Generated_Source\PSoC5/cyfitter_cfg.c **** /* DSISWITCH_1_5 Address: CYDEV_UCFG_DSI0_BASE Size (bytes): 128 */
 365:Generated_Source\PSoC5/cyfitter_cfg.c **** #define BS_DSISWITCH_1_5_VAL ((const uint8 CYFAR *)0x48001B8Cu)
 366:Generated_Source\PSoC5/cyfitter_cfg.c **** 
 367:Generated_Source\PSoC5/cyfitter_cfg.c **** /* DSI3_5_HV_ROUTING Address: CYDEV_UCFG_DSI0_BASE + 0x00000080u Size (bytes): 128 */
 368:Generated_Source\PSoC5/cyfitter_cfg.c **** #define BS_DSI3_5_HV_ROUTING_VAL ((const uint8 CYFAR *)0x48001C0Cu)
 369:Generated_Source\PSoC5/cyfitter_cfg.c **** 
 370:Generated_Source\PSoC5/cyfitter_cfg.c **** /* IOPINS0_0 Address: CYREG_PRT0_DM0 Size (bytes): 8 */
 371:Generated_Source\PSoC5/cyfitter_cfg.c **** #define BS_IOPINS0_0_VAL ((const uint8 CYFAR *)0x48001C8Cu)
 372:Generated_Source\PSoC5/cyfitter_cfg.c **** 
 373:Generated_Source\PSoC5/cyfitter_cfg.c **** /* IOPINS0_7 Address: CYREG_PRT12_DR Size (bytes): 10 */
 374:Generated_Source\PSoC5/cyfitter_cfg.c **** #define BS_IOPINS0_7_VAL ((const uint8 CYFAR *)0x48001C94u)
 375:Generated_Source\PSoC5/cyfitter_cfg.c **** 
 376:Generated_Source\PSoC5/cyfitter_cfg.c **** /* IOPINS0_1 Address: CYREG_PRT1_DM0 Size (bytes): 8 */
 377:Generated_Source\PSoC5/cyfitter_cfg.c **** #define BS_IOPINS0_1_VAL ((const uint8 CYFAR *)0x48001CA0u)
 378:Generated_Source\PSoC5/cyfitter_cfg.c **** 
 379:Generated_Source\PSoC5/cyfitter_cfg.c **** /* IOPINS0_2 Address: CYREG_PRT2_DR Size (bytes): 10 */
 380:Generated_Source\PSoC5/cyfitter_cfg.c **** #define BS_IOPINS0_2_VAL ((const uint8 CYFAR *)0x48001CA8u)
 381:Generated_Source\PSoC5/cyfitter_cfg.c **** 
 382:Generated_Source\PSoC5/cyfitter_cfg.c **** /* IOPINS0_3 Address: CYREG_PRT3_DM0 Size (bytes): 8 */
 383:Generated_Source\PSoC5/cyfitter_cfg.c **** #define BS_IOPINS0_3_VAL ((const uint8 CYFAR *)0x48001CB4u)
 384:Generated_Source\PSoC5/cyfitter_cfg.c **** 
 385:Generated_Source\PSoC5/cyfitter_cfg.c **** /* CYDEV_CLKDIST_ACFG0_CFG0 Address: CYREG_CLKDIST_ACFG0_CFG0 Size (bytes): 4 */
 386:Generated_Source\PSoC5/cyfitter_cfg.c **** #define BS_CYDEV_CLKDIST_ACFG0_CFG0_VAL ((const uint8 CYFAR *)0x48001CBCu)
 387:Generated_Source\PSoC5/cyfitter_cfg.c **** 
 388:Generated_Source\PSoC5/cyfitter_cfg.c **** 
ARM GAS  C:\Users\pajoh\AppData\Local\Temp\cctC92Wc.s 			page 19


 389:Generated_Source\PSoC5/cyfitter_cfg.c **** /*******************************************************************************
 390:Generated_Source\PSoC5/cyfitter_cfg.c **** * Function Name: cfg_dma_init
 391:Generated_Source\PSoC5/cyfitter_cfg.c **** ********************************************************************************
 392:Generated_Source\PSoC5/cyfitter_cfg.c **** * Summary:
 393:Generated_Source\PSoC5/cyfitter_cfg.c **** *  This function is used to copy device configuration data from constant values
 394:Generated_Source\PSoC5/cyfitter_cfg.c **** *  stored in memory into the proper chip configuration registers using DMA.  It
 395:Generated_Source\PSoC5/cyfitter_cfg.c **** *  pulls data out of the CFG_TD_LISTs to know exactly how/what to configure.
 396:Generated_Source\PSoC5/cyfitter_cfg.c **** *
 397:Generated_Source\PSoC5/cyfitter_cfg.c **** * Parameters:  
 398:Generated_Source\PSoC5/cyfitter_cfg.c **** *   void
 399:Generated_Source\PSoC5/cyfitter_cfg.c **** *
 400:Generated_Source\PSoC5/cyfitter_cfg.c **** * Return:
 401:Generated_Source\PSoC5/cyfitter_cfg.c **** *   void
 402:Generated_Source\PSoC5/cyfitter_cfg.c **** *
 403:Generated_Source\PSoC5/cyfitter_cfg.c **** *******************************************************************************/
 404:Generated_Source\PSoC5/cyfitter_cfg.c **** static void cfg_dma_init(void);
 405:Generated_Source\PSoC5/cyfitter_cfg.c **** static void cfg_dma_init(void)
 406:Generated_Source\PSoC5/cyfitter_cfg.c **** {
 639              		.loc 1 406 0
 640              		.cfi_startproc
 641              		@ args = 0, pretend = 0, frame = 8
 642              		@ frame_needed = 1, uses_anonymous_args = 0
 643              		@ link register save eliminated.
 644 0000 80B4     		push	{r7}
 645              		.cfi_def_cfa_offset 4
 646              		.cfi_offset 7, -4
 647 0002 83B0     		sub	sp, sp, #12
 648              		.cfi_def_cfa_offset 16
 649 0004 00AF     		add	r7, sp, #0
 650              		.cfi_def_cfa_register 7
 407:Generated_Source\PSoC5/cyfitter_cfg.c **** 	/* TD structure for little-endian systems. Does not require endian swap */
 408:Generated_Source\PSoC5/cyfitter_cfg.c **** 	CYPACKED struct td_t {
 409:Generated_Source\PSoC5/cyfitter_cfg.c **** 		uint16 size;
 410:Generated_Source\PSoC5/cyfitter_cfg.c **** 		uint8 next_td_ptr;
 411:Generated_Source\PSoC5/cyfitter_cfg.c **** 		uint8 flags;
 412:Generated_Source\PSoC5/cyfitter_cfg.c **** 		uint16 src;
 413:Generated_Source\PSoC5/cyfitter_cfg.c **** 		uint16 dest;
 414:Generated_Source\PSoC5/cyfitter_cfg.c **** 	} CYPACKED_ATTR;
 415:Generated_Source\PSoC5/cyfitter_cfg.c **** 
 416:Generated_Source\PSoC5/cyfitter_cfg.c **** 	/* PHUB_CH1_CFGMEM_CFG0/1 initialization data */
 417:Generated_Source\PSoC5/cyfitter_cfg.c **** 	DMAINITSEC static const uint8 CYCODE CH1_ADDR_DATA0[] = { 0x01u, 0x00u, 0x00u, 0x00u, 0x00u, 0x20u
 418:Generated_Source\PSoC5/cyfitter_cfg.c **** 
 419:Generated_Source\PSoC5/cyfitter_cfg.c **** 	/* PHUB_CH2_CFGMEM_CFG0/1 initialization data */
 420:Generated_Source\PSoC5/cyfitter_cfg.c **** 	DMAINITSEC static const uint8 CYCODE CH2_ADDR_DATA0[] = { 0x01u, 0x00u, 0x00u, 0x00u, 0x00u, 0x20u
 421:Generated_Source\PSoC5/cyfitter_cfg.c **** 
 422:Generated_Source\PSoC5/cyfitter_cfg.c **** 	/* PHUB_CH5_CFGMEM_CFG0/1 initialization data */
 423:Generated_Source\PSoC5/cyfitter_cfg.c **** 	DMAINITSEC static const uint8 CYCODE CH5_ADDR_DATA0[] = { 0x01u, 0x00u, 0x00u, 0x00u, 0x00u, 0x48u
 424:Generated_Source\PSoC5/cyfitter_cfg.c **** 
 425:Generated_Source\PSoC5/cyfitter_cfg.c **** 	/* PHUB_CH6_CFGMEM_CFG0/1 initialization data */
 426:Generated_Source\PSoC5/cyfitter_cfg.c **** 	DMAINITSEC static const uint8 CYCODE CH6_ADDR_DATA0[] = { 0x01u, 0x00u, 0x00u, 0x00u, 0x00u, 0x48u
 427:Generated_Source\PSoC5/cyfitter_cfg.c **** 
 428:Generated_Source\PSoC5/cyfitter_cfg.c **** 	/* Initialization data for each DMA channel's TD registers */
 429:Generated_Source\PSoC5/cyfitter_cfg.c **** 	DMAINITSEC static const uint8 CYCODE DMA_TD_START_CMD[] = { 0x01u, 0x00u, 0x00u, 0x00u, 0x01u };
 430:Generated_Source\PSoC5/cyfitter_cfg.c **** 
 431:Generated_Source\PSoC5/cyfitter_cfg.c **** 	CYALIGNED static uint32 CYXDATA DMA_ZERO_VAL;
 432:Generated_Source\PSoC5/cyfitter_cfg.c **** 
 433:Generated_Source\PSoC5/cyfitter_cfg.c **** 	/* This table holds all of the initialization data necessary for the DMA
ARM GAS  C:\Users\pajoh\AppData\Local\Temp\cctC92Wc.s 			page 20


 434:Generated_Source\PSoC5/cyfitter_cfg.c **** 	   process to transfer data from the source location to the destination. */
 435:Generated_Source\PSoC5/cyfitter_cfg.c **** 	/* Source addresses can be relocated, but only when in 32bit addresses.
 436:Generated_Source\PSoC5/cyfitter_cfg.c **** 	   Because the standard TD table only has 16bit addresses, we generate a
 437:Generated_Source\PSoC5/cyfitter_cfg.c **** 	   separate CFG_TD_ADDR table for the source addresses that supports 32bit
 438:Generated_Source\PSoC5/cyfitter_cfg.c **** 	   addresses. */
 439:Generated_Source\PSoC5/cyfitter_cfg.c **** 	DMAINITSEC static const struct td_t CYCODE CFG_TD_LIST0[] = {
 440:Generated_Source\PSoC5/cyfitter_cfg.c **** 		/* Size, Next, Flags, Source, Destination */
 441:Generated_Source\PSoC5/cyfitter_cfg.c **** 		{ 8u, 0x02u, 0x23u, (uint16)(uint32)(0u), (uint16)(CYREG_PHUB_CFGMEM1_CFG0) },	/* TD 1 */
 442:Generated_Source\PSoC5/cyfitter_cfg.c **** 		{ 8u, 0x03u, 0x23u, (uint16)(uint32)(0u), (uint16)(CYREG_PHUB_CFGMEM2_CFG0) },	/* TD 2 */
 443:Generated_Source\PSoC5/cyfitter_cfg.c **** 		{ 8u, 0x04u, 0x23u, (uint16)(uint32)(0u), (uint16)(CYREG_PHUB_CFGMEM5_CFG0) },	/* TD 3 */
 444:Generated_Source\PSoC5/cyfitter_cfg.c **** 		{ 8u, 0x05u, 0x23u, (uint16)(uint32)(0u), (uint16)(CYREG_PHUB_CFGMEM6_CFG0) },	/* TD 4 */
 445:Generated_Source\PSoC5/cyfitter_cfg.c **** 		{ 5u, 0x06u, 0x23u, (uint16)(uint32)(0u), (uint16)(CYREG_PHUB_CH1_BASIC_CFG) },	/* TD 5 */
 446:Generated_Source\PSoC5/cyfitter_cfg.c **** 		{ 5u, 0x07u, 0x23u, (uint16)(uint32)(0u), (uint16)(CYREG_PHUB_CH2_BASIC_CFG) },	/* TD 6 */
 447:Generated_Source\PSoC5/cyfitter_cfg.c **** 		{ 5u, 0x08u, 0x23u, (uint16)(uint32)(0u), (uint16)(CYREG_PHUB_CH5_BASIC_CFG) },	/* TD 7 */
 448:Generated_Source\PSoC5/cyfitter_cfg.c **** 		{ 5u, 0xFEu, 0x23u, (uint16)(uint32)(0u), (uint16)(CYREG_PHUB_CH6_BASIC_CFG) },	/* TD 8 */
 449:Generated_Source\PSoC5/cyfitter_cfg.c **** 		{ 25u, 0x0Au, 0x22u, (uint16)(uint32)(0u), (uint16)(CYREG_I2C_XCFG) },	/* TD 9 */
 450:Generated_Source\PSoC5/cyfitter_cfg.c **** 		{ 48u, 0x0Bu, 0x22u, (uint16)(uint32)(0u), (uint16)(CYREG_PRT4_DR) },	/* TD 10 */
 451:Generated_Source\PSoC5/cyfitter_cfg.c **** 		{ 16u, 0xFEu, 0x22u, (uint16)(uint32)(0u), (uint16)(CYREG_PRT15_DR) },	/* TD 11 */
 452:Generated_Source\PSoC5/cyfitter_cfg.c **** 		{ 512u, 0x0Du, 0x22u, (uint16)(uint32)(0u), (uint16)(CYDEV_UCFG_B0_P0_U0_BASE) },	/* TD 12 */
 453:Generated_Source\PSoC5/cyfitter_cfg.c **** 		{ 512u, 0x0Eu, 0x22u, (uint16)(uint32)(0u), (uint16)(CYDEV_UCFG_B0_P7_U0_BASE) },	/* TD 13 */
 454:Generated_Source\PSoC5/cyfitter_cfg.c **** 		{ 384u, 0x0Fu, 0x22u, (uint16)(uint32)(0u), (uint16)(CYDEV_UCFG_B1_P2_U0_BASE) },	/* TD 14 */
 455:Generated_Source\PSoC5/cyfitter_cfg.c **** 		{ 384u, 0x10u, 0x22u, (uint16)(uint32)(0u), (uint16)(CYDEV_UCFG_B1_P3_U0_BASE) },	/* TD 15 */
 456:Generated_Source\PSoC5/cyfitter_cfg.c **** 		{ 128u, 0x11u, 0x22u, (uint16)(uint32)(0u), (uint16)(CYDEV_UCFG_DSI3_BASE) },	/* TD 16 */
 457:Generated_Source\PSoC5/cyfitter_cfg.c **** 		{ 128u, 0xFEu, 0x22u, (uint16)(uint32)(0u), (uint16)(CYDEV_UCFG_DSI7_BASE) },	/* TD 17 */
 458:Generated_Source\PSoC5/cyfitter_cfg.c **** 		{ 7u, 0x13u, 0x23u, (uint16)(uint32)(0u), (uint16)(CYDEV_PRTDSI_PRT0_BASE) },	/* TD 18 */
 459:Generated_Source\PSoC5/cyfitter_cfg.c **** 		{ 7u, 0x14u, 0x23u, (uint16)(uint32)(0u), (uint16)(CYDEV_PRTDSI_PRT2_BASE) },	/* TD 19 */
 460:Generated_Source\PSoC5/cyfitter_cfg.c **** 		{ 6u, 0x15u, 0x23u, (uint16)(uint32)(0u), (uint16)(CYDEV_PRTDSI_PRT12_BASE) },	/* TD 20 */
 461:Generated_Source\PSoC5/cyfitter_cfg.c **** 		{ 12u, 0x16u, 0x23u, (uint16)(uint32)(0u), (uint16)(CYREG_TMR0_CFG0) },	/* TD 21 */
 462:Generated_Source\PSoC5/cyfitter_cfg.c **** 		{ 32u, 0x17u, 0x23u, (uint16)(uint32)(0u), (uint16)(CYDEV_UWRK_UWRK8_B0_BASE + 0x00000070u) },	/*
 463:Generated_Source\PSoC5/cyfitter_cfg.c **** 		{ 32u, 0xFEu, 0x23u, (uint16)(uint32)(0u), (uint16)(CYDEV_UWRK_UWRK8_B1_BASE + 0x00000070u) },	/*
 464:Generated_Source\PSoC5/cyfitter_cfg.c **** 		{ 8u, 0x19u, 0x23u, (uint16)(uint32)(0u), (uint16)(CYREG_IDMUX_IRQ_CTL0) },	/* TD 24 */
 465:Generated_Source\PSoC5/cyfitter_cfg.c **** 		{ 128u, 0x1Au, 0x23u, (uint16)(uint32)(0u), (uint16)(CYDEV_UCFG_B0_P1_U0_BASE) },	/* TD 25 */
 466:Generated_Source\PSoC5/cyfitter_cfg.c **** 		{ 128u, 0x1Bu, 0x23u, (uint16)(uint32)(0u), (uint16)(CYDEV_UCFG_B0_P1_U1_BASE) },	/* TD 26 */
 467:Generated_Source\PSoC5/cyfitter_cfg.c **** 		{ 128u, 0x1Cu, 0x23u, (uint16)(uint32)(0u), (uint16)(CYDEV_UCFG_B0_P2_U0_BASE) },	/* TD 27 */
 468:Generated_Source\PSoC5/cyfitter_cfg.c **** 		{ 128u, 0x1Du, 0x23u, (uint16)(uint32)(0u), (uint16)(CYDEV_UCFG_B0_P2_U1_BASE) },	/* TD 28 */
 469:Generated_Source\PSoC5/cyfitter_cfg.c **** 		{ 128u, 0x1Eu, 0x23u, (uint16)(uint32)(0u), (uint16)(CYDEV_UCFG_B0_P3_U0_BASE) },	/* TD 29 */
 470:Generated_Source\PSoC5/cyfitter_cfg.c **** 		{ 128u, 0x1Fu, 0x23u, (uint16)(uint32)(0u), (uint16)(CYDEV_UCFG_B0_P3_U1_BASE) },	/* TD 30 */
 471:Generated_Source\PSoC5/cyfitter_cfg.c **** 		{ 128u, 0x20u, 0x23u, (uint16)(uint32)(0u), (uint16)(CYDEV_UCFG_B0_P4_U0_BASE) },	/* TD 31 */
 472:Generated_Source\PSoC5/cyfitter_cfg.c **** 		{ 128u, 0x21u, 0x23u, (uint16)(uint32)(0u), (uint16)(CYDEV_UCFG_B0_P4_U1_BASE) },	/* TD 32 */
 473:Generated_Source\PSoC5/cyfitter_cfg.c **** 		{ 128u, 0x22u, 0x23u, (uint16)(uint32)(0u), (uint16)(CYDEV_UCFG_B0_P5_U0_BASE) },	/* TD 33 */
 474:Generated_Source\PSoC5/cyfitter_cfg.c **** 		{ 128u, 0x23u, 0x23u, (uint16)(uint32)(0u), (uint16)(CYDEV_UCFG_B0_P5_U1_BASE) },	/* TD 34 */
 475:Generated_Source\PSoC5/cyfitter_cfg.c **** 		{ 128u, 0x24u, 0x23u, (uint16)(uint32)(0u), (uint16)(CYDEV_UCFG_B0_P6_U0_BASE) },	/* TD 35 */
 476:Generated_Source\PSoC5/cyfitter_cfg.c **** 		{ 128u, 0x25u, 0x23u, (uint16)(uint32)(0u), (uint16)(CYDEV_UCFG_B0_P6_U1_BASE) },	/* TD 36 */
 477:Generated_Source\PSoC5/cyfitter_cfg.c **** 		{ 128u, 0x26u, 0x23u, (uint16)(uint32)(0u), (uint16)(CYDEV_UCFG_B1_P4_U0_BASE) },	/* TD 37 */
 478:Generated_Source\PSoC5/cyfitter_cfg.c **** 		{ 128u, 0x27u, 0x23u, (uint16)(uint32)(0u), (uint16)(CYDEV_UCFG_B1_P4_U1_BASE) },	/* TD 38 */
 479:Generated_Source\PSoC5/cyfitter_cfg.c **** 		{ 128u, 0x28u, 0x23u, (uint16)(uint32)(0u), (uint16)(CYDEV_UCFG_B1_P5_U0_BASE) },	/* TD 39 */
 480:Generated_Source\PSoC5/cyfitter_cfg.c **** 		{ 128u, 0x29u, 0x23u, (uint16)(uint32)(0u), (uint16)(CYDEV_UCFG_B1_P5_U1_BASE) },	/* TD 40 */
 481:Generated_Source\PSoC5/cyfitter_cfg.c **** 		{ 16u, 0x2Au, 0x23u, (uint16)(uint32)(0u), (uint16)(CYREG_BCTL1_MDCLK_EN) },	/* TD 41 */
 482:Generated_Source\PSoC5/cyfitter_cfg.c **** 		{ 16u, 0x2Bu, 0x23u, (uint16)(uint32)(0u), (uint16)(CYREG_BCTL0_MDCLK_EN) },	/* TD 42 */
 483:Generated_Source\PSoC5/cyfitter_cfg.c **** 		{ 128u, 0x2Cu, 0x23u, (uint16)(uint32)(0u), (uint16)(CYDEV_UCFG_DSI13_BASE) },	/* TD 43 */
 484:Generated_Source\PSoC5/cyfitter_cfg.c **** 		{ 128u, 0x2Du, 0x23u, (uint16)(uint32)(0u), (uint16)(CYDEV_UCFG_DSI13_BASE + 0x00000080u) },	/* T
 485:Generated_Source\PSoC5/cyfitter_cfg.c **** 		{ 128u, 0x2Eu, 0x23u, (uint16)(uint32)(0u), (uint16)(CYDEV_UCFG_DSI12_BASE) },	/* TD 45 */
 486:Generated_Source\PSoC5/cyfitter_cfg.c **** 		{ 128u, 0x2Fu, 0x23u, (uint16)(uint32)(0u), (uint16)(CYDEV_UCFG_DSI12_BASE + 0x00000080u) },	/* T
 487:Generated_Source\PSoC5/cyfitter_cfg.c **** 		{ 128u, 0x30u, 0x23u, (uint16)(uint32)(0u), (uint16)(CYDEV_UCFG_DSI7_BASE + 0x00000080u) },	/* TD
 488:Generated_Source\PSoC5/cyfitter_cfg.c **** 		{ 128u, 0x31u, 0x23u, (uint16)(uint32)(0u), (uint16)(CYDEV_UCFG_DSI6_BASE) },	/* TD 48 */
 489:Generated_Source\PSoC5/cyfitter_cfg.c **** 		{ 128u, 0x32u, 0x23u, (uint16)(uint32)(0u), (uint16)(CYDEV_UCFG_DSI6_BASE + 0x00000080u) },	/* TD
 490:Generated_Source\PSoC5/cyfitter_cfg.c **** 		{ 128u, 0x33u, 0x23u, (uint16)(uint32)(0u), (uint16)(CYDEV_UCFG_DSI5_BASE) },	/* TD 50 */
ARM GAS  C:\Users\pajoh\AppData\Local\Temp\cctC92Wc.s 			page 21


 491:Generated_Source\PSoC5/cyfitter_cfg.c **** 		{ 128u, 0x34u, 0x23u, (uint16)(uint32)(0u), (uint16)(CYDEV_UCFG_DSI5_BASE + 0x00000080u) },	/* TD
 492:Generated_Source\PSoC5/cyfitter_cfg.c **** 		{ 128u, 0x35u, 0x23u, (uint16)(uint32)(0u), (uint16)(CYDEV_UCFG_DSI4_BASE) },	/* TD 52 */
 493:Generated_Source\PSoC5/cyfitter_cfg.c **** 		{ 128u, 0x36u, 0x23u, (uint16)(uint32)(0u), (uint16)(CYDEV_UCFG_DSI4_BASE + 0x00000080u) },	/* TD
 494:Generated_Source\PSoC5/cyfitter_cfg.c **** 		{ 128u, 0x37u, 0x23u, (uint16)(uint32)(0u), (uint16)(CYDEV_UCFG_B1_P5_ROUTE_BASE) },	/* TD 54 */
 495:Generated_Source\PSoC5/cyfitter_cfg.c **** 		{ 128u, 0x38u, 0x23u, (uint16)(uint32)(0u), (uint16)(CYDEV_UCFG_B1_P5_ROUTE_BASE + 0x00000080u) }
 496:Generated_Source\PSoC5/cyfitter_cfg.c **** 		{ 128u, 0x39u, 0x23u, (uint16)(uint32)(0u), (uint16)(CYDEV_UCFG_B1_P2_ROUTE_BASE + 0x00000080u) }
 497:Generated_Source\PSoC5/cyfitter_cfg.c **** 		{ 128u, 0x3Au, 0x23u, (uint16)(uint32)(0u), (uint16)(CYDEV_UCFG_B1_P4_ROUTE_BASE) },	/* TD 57 */
 498:Generated_Source\PSoC5/cyfitter_cfg.c **** 		{ 128u, 0x3Bu, 0x23u, (uint16)(uint32)(0u), (uint16)(CYDEV_UCFG_B1_P4_ROUTE_BASE + 0x00000080u) }
 499:Generated_Source\PSoC5/cyfitter_cfg.c **** 		{ 128u, 0x3Cu, 0x23u, (uint16)(uint32)(0u), (uint16)(CYDEV_UCFG_B1_P3_ROUTE_BASE + 0x00000080u) }
 500:Generated_Source\PSoC5/cyfitter_cfg.c **** 		{ 128u, 0x3Du, 0x23u, (uint16)(uint32)(0u), (uint16)(CYDEV_UCFG_B0_P4_ROUTE_BASE) },	/* TD 60 */
 501:Generated_Source\PSoC5/cyfitter_cfg.c **** 		{ 128u, 0x3Eu, 0x23u, (uint16)(uint32)(0u), (uint16)(CYDEV_UCFG_B0_P4_ROUTE_BASE + 0x00000080u) }
 502:Generated_Source\PSoC5/cyfitter_cfg.c **** 		{ 128u, 0x3Fu, 0x23u, (uint16)(uint32)(0u), (uint16)(CYDEV_UCFG_B0_P3_ROUTE_BASE) },	/* TD 62 */
 503:Generated_Source\PSoC5/cyfitter_cfg.c **** 		{ 128u, 0x40u, 0x23u, (uint16)(uint32)(0u), (uint16)(CYDEV_UCFG_B0_P3_ROUTE_BASE + 0x00000080u) }
 504:Generated_Source\PSoC5/cyfitter_cfg.c **** 		{ 128u, 0x41u, 0x23u, (uint16)(uint32)(0u), (uint16)(CYDEV_UCFG_B0_P5_ROUTE_BASE) },	/* TD 64 */
 505:Generated_Source\PSoC5/cyfitter_cfg.c **** 		{ 128u, 0x42u, 0x23u, (uint16)(uint32)(0u), (uint16)(CYDEV_UCFG_B0_P5_ROUTE_BASE + 0x00000080u) }
 506:Generated_Source\PSoC5/cyfitter_cfg.c **** 		{ 128u, 0x43u, 0x23u, (uint16)(uint32)(0u), (uint16)(CYDEV_UCFG_B0_P2_ROUTE_BASE) },	/* TD 66 */
 507:Generated_Source\PSoC5/cyfitter_cfg.c **** 		{ 128u, 0x44u, 0x23u, (uint16)(uint32)(0u), (uint16)(CYDEV_UCFG_B0_P2_ROUTE_BASE + 0x00000080u) }
 508:Generated_Source\PSoC5/cyfitter_cfg.c **** 		{ 128u, 0x45u, 0x23u, (uint16)(uint32)(0u), (uint16)(CYDEV_UCFG_B0_P6_ROUTE_BASE) },	/* TD 68 */
 509:Generated_Source\PSoC5/cyfitter_cfg.c **** 		{ 128u, 0x46u, 0x23u, (uint16)(uint32)(0u), (uint16)(CYDEV_UCFG_B0_P6_ROUTE_BASE + 0x00000080u) }
 510:Generated_Source\PSoC5/cyfitter_cfg.c **** 		{ 128u, 0x47u, 0x23u, (uint16)(uint32)(0u), (uint16)(CYDEV_UCFG_B0_P1_ROUTE_BASE) },	/* TD 70 */
 511:Generated_Source\PSoC5/cyfitter_cfg.c **** 		{ 128u, 0x48u, 0x23u, (uint16)(uint32)(0u), (uint16)(CYDEV_UCFG_B0_P1_ROUTE_BASE + 0x00000080u) }
 512:Generated_Source\PSoC5/cyfitter_cfg.c **** 		{ 128u, 0x49u, 0x23u, (uint16)(uint32)(0u), (uint16)(CYDEV_UCFG_DSI9_BASE) },	/* TD 72 */
 513:Generated_Source\PSoC5/cyfitter_cfg.c **** 		{ 128u, 0x4Au, 0x23u, (uint16)(uint32)(0u), (uint16)(CYDEV_UCFG_DSI9_BASE + 0x00000080u) },	/* TD
 514:Generated_Source\PSoC5/cyfitter_cfg.c **** 		{ 128u, 0x4Bu, 0x23u, (uint16)(uint32)(0u), (uint16)(CYDEV_UCFG_DSI8_BASE) },	/* TD 74 */
 515:Generated_Source\PSoC5/cyfitter_cfg.c **** 		{ 128u, 0x4Cu, 0x23u, (uint16)(uint32)(0u), (uint16)(CYDEV_UCFG_DSI8_BASE + 0x00000080u) },	/* TD
 516:Generated_Source\PSoC5/cyfitter_cfg.c **** 		{ 128u, 0x4Du, 0x23u, (uint16)(uint32)(0u), (uint16)(CYDEV_UCFG_DSI3_BASE + 0x00000080u) },	/* TD
 517:Generated_Source\PSoC5/cyfitter_cfg.c **** 		{ 128u, 0x4Eu, 0x23u, (uint16)(uint32)(0u), (uint16)(CYDEV_UCFG_DSI2_BASE) },	/* TD 77 */
 518:Generated_Source\PSoC5/cyfitter_cfg.c **** 		{ 128u, 0x4Fu, 0x23u, (uint16)(uint32)(0u), (uint16)(CYDEV_UCFG_DSI2_BASE + 0x00000080u) },	/* TD
 519:Generated_Source\PSoC5/cyfitter_cfg.c **** 		{ 128u, 0x50u, 0x23u, (uint16)(uint32)(0u), (uint16)(CYDEV_UCFG_DSI1_BASE) },	/* TD 79 */
 520:Generated_Source\PSoC5/cyfitter_cfg.c **** 		{ 128u, 0x51u, 0x23u, (uint16)(uint32)(0u), (uint16)(CYDEV_UCFG_DSI1_BASE + 0x00000080u) },	/* TD
 521:Generated_Source\PSoC5/cyfitter_cfg.c **** 		{ 128u, 0x52u, 0x23u, (uint16)(uint32)(0u), (uint16)(CYDEV_UCFG_DSI0_BASE) },	/* TD 81 */
 522:Generated_Source\PSoC5/cyfitter_cfg.c **** 		{ 128u, 0xFEu, 0x23u, (uint16)(uint32)(0u), (uint16)(CYDEV_UCFG_DSI0_BASE + 0x00000080u) },	/* TD
 523:Generated_Source\PSoC5/cyfitter_cfg.c **** 	};
 524:Generated_Source\PSoC5/cyfitter_cfg.c **** 
 525:Generated_Source\PSoC5/cyfitter_cfg.c **** 	/* Source addresses can be relocated, but only when in 32bit addresses.
 526:Generated_Source\PSoC5/cyfitter_cfg.c **** 	   Because the standard TD table only has 16bit addresses, we generate a
 527:Generated_Source\PSoC5/cyfitter_cfg.c **** 	   separate table for the source addresses that does use 32bit addresses. This
 528:Generated_Source\PSoC5/cyfitter_cfg.c **** 	   table will be re-merged with the corresponding CFG_TD_LIST table during
 529:Generated_Source\PSoC5/cyfitter_cfg.c **** 	   initialization. */
 530:Generated_Source\PSoC5/cyfitter_cfg.c **** 	static const void * const CFG_TD_ADDR0[] = {
 531:Generated_Source\PSoC5/cyfitter_cfg.c **** 		(const void *)(CH1_ADDR_DATA0),	/* TD 1 */
 532:Generated_Source\PSoC5/cyfitter_cfg.c **** 		(const void *)(CH2_ADDR_DATA0),	/* TD 2 */
 533:Generated_Source\PSoC5/cyfitter_cfg.c **** 		(const void *)(CH5_ADDR_DATA0),	/* TD 3 */
 534:Generated_Source\PSoC5/cyfitter_cfg.c **** 		(const void *)(CH6_ADDR_DATA0),	/* TD 4 */
 535:Generated_Source\PSoC5/cyfitter_cfg.c **** 		(const void *)(DMA_TD_START_CMD),	/* TD 5 */
 536:Generated_Source\PSoC5/cyfitter_cfg.c **** 		(const void *)(DMA_TD_START_CMD),	/* TD 6 */
 537:Generated_Source\PSoC5/cyfitter_cfg.c **** 		(const void *)(DMA_TD_START_CMD),	/* TD 7 */
 538:Generated_Source\PSoC5/cyfitter_cfg.c **** 		(const void *)(DMA_TD_START_CMD),	/* TD 8 */
 539:Generated_Source\PSoC5/cyfitter_cfg.c **** 		(const void *)(&DMA_ZERO_VAL),	/* TD 9 */
 540:Generated_Source\PSoC5/cyfitter_cfg.c **** 		(const void *)(&DMA_ZERO_VAL),	/* TD 10 */
 541:Generated_Source\PSoC5/cyfitter_cfg.c **** 		(const void *)(&DMA_ZERO_VAL),	/* TD 11 */
 542:Generated_Source\PSoC5/cyfitter_cfg.c **** 		(const void *)(&DMA_ZERO_VAL),	/* TD 12 */
 543:Generated_Source\PSoC5/cyfitter_cfg.c **** 		(const void *)(&DMA_ZERO_VAL),	/* TD 13 */
 544:Generated_Source\PSoC5/cyfitter_cfg.c **** 		(const void *)(&DMA_ZERO_VAL),	/* TD 14 */
 545:Generated_Source\PSoC5/cyfitter_cfg.c **** 		(const void *)(&DMA_ZERO_VAL),	/* TD 15 */
 546:Generated_Source\PSoC5/cyfitter_cfg.c **** 		(const void *)(&DMA_ZERO_VAL),	/* TD 16 */
 547:Generated_Source\PSoC5/cyfitter_cfg.c **** 		(const void *)(&DMA_ZERO_VAL),	/* TD 17 */
ARM GAS  C:\Users\pajoh\AppData\Local\Temp\cctC92Wc.s 			page 22


 548:Generated_Source\PSoC5/cyfitter_cfg.c **** 		(const void *)(BS_IOPORT_0_VAL),	/* TD 18 */
 549:Generated_Source\PSoC5/cyfitter_cfg.c **** 		(const void *)(BS_IOPORT_2_VAL),	/* TD 19 */
 550:Generated_Source\PSoC5/cyfitter_cfg.c **** 		(const void *)(BS_IOPORT_7_VAL),	/* TD 20 */
 551:Generated_Source\PSoC5/cyfitter_cfg.c **** 		(const void *)(BS_TMR0_VAL),	/* TD 21 */
 552:Generated_Source\PSoC5/cyfitter_cfg.c **** 		(const void *)(BS_UWRK_B0_WRK_STATCTL_BITS_VAL),	/* TD 22 */
 553:Generated_Source\PSoC5/cyfitter_cfg.c **** 		(const void *)(BS_UWRK_B1_WRK_STATCTL_BITS_VAL),	/* TD 23 */
 554:Generated_Source\PSoC5/cyfitter_cfg.c **** 		(const void *)(BS_IDMUX_IRQ_VAL),	/* TD 24 */
 555:Generated_Source\PSoC5/cyfitter_cfg.c **** 		(const void *)(BS_UDB_1_4_1_CONFIG_VAL),	/* TD 25 */
 556:Generated_Source\PSoC5/cyfitter_cfg.c **** 		(const void *)(BS_UDB_1_4_0_CONFIG_VAL),	/* TD 26 */
 557:Generated_Source\PSoC5/cyfitter_cfg.c **** 		(const void *)(BS_UDB_1_3_0_CONFIG_VAL),	/* TD 27 */
 558:Generated_Source\PSoC5/cyfitter_cfg.c **** 		(const void *)(BS_UDB_1_3_1_CONFIG_VAL),	/* TD 28 */
 559:Generated_Source\PSoC5/cyfitter_cfg.c **** 		(const void *)(BS_UDB_1_2_1_CONFIG_VAL),	/* TD 29 */
 560:Generated_Source\PSoC5/cyfitter_cfg.c **** 		(const void *)(BS_UDB_1_2_0_CONFIG_VAL),	/* TD 30 */
 561:Generated_Source\PSoC5/cyfitter_cfg.c **** 		(const void *)(BS_UDB_0_2_1_CONFIG_VAL),	/* TD 31 */
 562:Generated_Source\PSoC5/cyfitter_cfg.c **** 		(const void *)(BS_UDB_0_2_0_CONFIG_VAL),	/* TD 32 */
 563:Generated_Source\PSoC5/cyfitter_cfg.c **** 		(const void *)(BS_UDB_0_3_0_CONFIG_VAL),	/* TD 33 */
 564:Generated_Source\PSoC5/cyfitter_cfg.c **** 		(const void *)(BS_UDB_0_3_1_CONFIG_VAL),	/* TD 34 */
 565:Generated_Source\PSoC5/cyfitter_cfg.c **** 		(const void *)(BS_UDB_0_4_1_CONFIG_VAL),	/* TD 35 */
 566:Generated_Source\PSoC5/cyfitter_cfg.c **** 		(const void *)(BS_UDB_0_4_0_CONFIG_VAL),	/* TD 36 */
 567:Generated_Source\PSoC5/cyfitter_cfg.c **** 		(const void *)(BS_UDB_0_1_1_CONFIG_VAL),	/* TD 37 */
 568:Generated_Source\PSoC5/cyfitter_cfg.c **** 		(const void *)(BS_UDB_0_1_0_CONFIG_VAL),	/* TD 38 */
 569:Generated_Source\PSoC5/cyfitter_cfg.c **** 		(const void *)(BS_UDB_0_0_0_CONFIG_VAL),	/* TD 39 */
 570:Generated_Source\PSoC5/cyfitter_cfg.c **** 		(const void *)(BS_UDB_0_0_1_CONFIG_VAL),	/* TD 40 */
 571:Generated_Source\PSoC5/cyfitter_cfg.c **** 		(const void *)(BS_UCFG_BCTL1_VAL),	/* TD 41 */
 572:Generated_Source\PSoC5/cyfitter_cfg.c **** 		(const void *)(BS_UCFG_BCTL0_VAL),	/* TD 42 */
 573:Generated_Source\PSoC5/cyfitter_cfg.c **** 		(const void *)(BS_DSISWITCH_0_0_VAL),	/* TD 43 */
 574:Generated_Source\PSoC5/cyfitter_cfg.c **** 		(const void *)(BS_DSI0_0_HV_ROUTING_VAL),	/* TD 44 */
 575:Generated_Source\PSoC5/cyfitter_cfg.c **** 		(const void *)(BS_DSISWITCH_0_1_VAL),	/* TD 45 */
 576:Generated_Source\PSoC5/cyfitter_cfg.c **** 		(const void *)(BS_DSI0_1_HV_ROUTING_VAL),	/* TD 46 */
 577:Generated_Source\PSoC5/cyfitter_cfg.c **** 		(const void *)(BS_DSI0_2_HV_ROUTING_VAL),	/* TD 47 */
 578:Generated_Source\PSoC5/cyfitter_cfg.c **** 		(const void *)(BS_DSISWITCH_0_3_VAL),	/* TD 48 */
 579:Generated_Source\PSoC5/cyfitter_cfg.c **** 		(const void *)(BS_DSI0_3_HV_ROUTING_VAL),	/* TD 49 */
 580:Generated_Source\PSoC5/cyfitter_cfg.c **** 		(const void *)(BS_DSISWITCH_0_4_VAL),	/* TD 50 */
 581:Generated_Source\PSoC5/cyfitter_cfg.c **** 		(const void *)(BS_DSI0_4_HV_ROUTING_VAL),	/* TD 51 */
 582:Generated_Source\PSoC5/cyfitter_cfg.c **** 		(const void *)(BS_DSISWITCH_0_5_VAL),	/* TD 52 */
 583:Generated_Source\PSoC5/cyfitter_cfg.c **** 		(const void *)(BS_DSI0_5_HV_ROUTING_VAL),	/* TD 53 */
 584:Generated_Source\PSoC5/cyfitter_cfg.c **** 		(const void *)(BS_UDBSWITCH_0_0_VAL),	/* TD 54 */
 585:Generated_Source\PSoC5/cyfitter_cfg.c **** 		(const void *)(BS_UDB_1_0_HV_ROUTING_VAL),	/* TD 55 */
 586:Generated_Source\PSoC5/cyfitter_cfg.c **** 		(const void *)(BS_UDB_2_0_HV_ROUTING_VAL),	/* TD 56 */
 587:Generated_Source\PSoC5/cyfitter_cfg.c **** 		(const void *)(BS_UDBSWITCH_0_1_VAL),	/* TD 57 */
 588:Generated_Source\PSoC5/cyfitter_cfg.c **** 		(const void *)(BS_UDB_1_1_HV_ROUTING_VAL),	/* TD 58 */
 589:Generated_Source\PSoC5/cyfitter_cfg.c **** 		(const void *)(BS_UDB_2_1_HV_ROUTING_VAL),	/* TD 59 */
 590:Generated_Source\PSoC5/cyfitter_cfg.c **** 		(const void *)(BS_UDBSWITCH_0_2_VAL),	/* TD 60 */
 591:Generated_Source\PSoC5/cyfitter_cfg.c **** 		(const void *)(BS_UDB_1_2_HV_ROUTING_VAL),	/* TD 61 */
 592:Generated_Source\PSoC5/cyfitter_cfg.c **** 		(const void *)(BS_UDBSWITCH_1_2_VAL),	/* TD 62 */
 593:Generated_Source\PSoC5/cyfitter_cfg.c **** 		(const void *)(BS_UDB_2_2_HV_ROUTING_VAL),	/* TD 63 */
 594:Generated_Source\PSoC5/cyfitter_cfg.c **** 		(const void *)(BS_UDBSWITCH_0_3_VAL),	/* TD 64 */
 595:Generated_Source\PSoC5/cyfitter_cfg.c **** 		(const void *)(BS_UDB_1_3_HV_ROUTING_VAL),	/* TD 65 */
 596:Generated_Source\PSoC5/cyfitter_cfg.c **** 		(const void *)(BS_UDBSWITCH_1_3_VAL),	/* TD 66 */
 597:Generated_Source\PSoC5/cyfitter_cfg.c **** 		(const void *)(BS_UDB_2_3_HV_ROUTING_VAL),	/* TD 67 */
 598:Generated_Source\PSoC5/cyfitter_cfg.c **** 		(const void *)(BS_UDBSWITCH_0_4_VAL),	/* TD 68 */
 599:Generated_Source\PSoC5/cyfitter_cfg.c **** 		(const void *)(BS_UDB_1_4_HV_ROUTING_VAL),	/* TD 69 */
 600:Generated_Source\PSoC5/cyfitter_cfg.c **** 		(const void *)(BS_UDBSWITCH_1_4_VAL),	/* TD 70 */
 601:Generated_Source\PSoC5/cyfitter_cfg.c **** 		(const void *)(BS_UDB_2_4_HV_ROUTING_VAL),	/* TD 71 */
 602:Generated_Source\PSoC5/cyfitter_cfg.c **** 		(const void *)(BS_DSISWITCH_1_0_VAL),	/* TD 72 */
 603:Generated_Source\PSoC5/cyfitter_cfg.c **** 		(const void *)(BS_DSI3_0_HV_ROUTING_VAL),	/* TD 73 */
 604:Generated_Source\PSoC5/cyfitter_cfg.c **** 		(const void *)(BS_DSISWITCH_1_1_VAL),	/* TD 74 */
ARM GAS  C:\Users\pajoh\AppData\Local\Temp\cctC92Wc.s 			page 23


 605:Generated_Source\PSoC5/cyfitter_cfg.c **** 		(const void *)(BS_DSI3_1_HV_ROUTING_VAL),	/* TD 75 */
 606:Generated_Source\PSoC5/cyfitter_cfg.c **** 		(const void *)(BS_DSI3_2_HV_ROUTING_VAL),	/* TD 76 */
 607:Generated_Source\PSoC5/cyfitter_cfg.c **** 		(const void *)(BS_DSISWITCH_1_3_VAL),	/* TD 77 */
 608:Generated_Source\PSoC5/cyfitter_cfg.c **** 		(const void *)(BS_DSI3_3_HV_ROUTING_VAL),	/* TD 78 */
 609:Generated_Source\PSoC5/cyfitter_cfg.c **** 		(const void *)(BS_DSISWITCH_1_4_VAL),	/* TD 79 */
 610:Generated_Source\PSoC5/cyfitter_cfg.c **** 		(const void *)(BS_DSI3_4_HV_ROUTING_VAL),	/* TD 80 */
 611:Generated_Source\PSoC5/cyfitter_cfg.c **** 		(const void *)(BS_DSISWITCH_1_5_VAL),	/* TD 81 */
 612:Generated_Source\PSoC5/cyfitter_cfg.c **** 		(const void *)(BS_DSI3_5_HV_ROUTING_VAL),	/* TD 82 */
 613:Generated_Source\PSoC5/cyfitter_cfg.c **** 	};
 614:Generated_Source\PSoC5/cyfitter_cfg.c **** 
 615:Generated_Source\PSoC5/cyfitter_cfg.c **** 
 616:Generated_Source\PSoC5/cyfitter_cfg.c **** 	uint32 i;
 617:Generated_Source\PSoC5/cyfitter_cfg.c **** 
 618:Generated_Source\PSoC5/cyfitter_cfg.c **** 	DMA_ZERO_VAL = 0u;
 651              		.loc 1 618 0
 652 0006 434B     		ldr	r3, .L15
 653 0008 0022     		movs	r2, #0
 654 000a 1A60     		str	r2, [r3]
 619:Generated_Source\PSoC5/cyfitter_cfg.c **** 	CY_SET_REG8((void CYXDATA *)CYREG_PHUB_CFGMEM0_CFG0, 0x10u);	/* set burstcnt */
 655              		.loc 1 619 0
 656 000c 424B     		ldr	r3, .L15+4
 657 000e 1022     		movs	r2, #16
 658 0010 1A70     		strb	r2, [r3]
 620:Generated_Source\PSoC5/cyfitter_cfg.c **** 	CY_SET_REG8((void CYXDATA *)CYREG_PHUB_CH0_BASIC_CFG, 0x01u);	/* enable ch0 */
 659              		.loc 1 620 0
 660 0012 424B     		ldr	r3, .L15+8
 661 0014 0122     		movs	r2, #1
 662 0016 1A70     		strb	r2, [r3]
 621:Generated_Source\PSoC5/cyfitter_cfg.c **** 	CY_SET_REG8((void CYXDATA *)(CYREG_PHUB_CH0_BASIC_STATUS+1u), 0x00u);	/* set first TD to 0 */
 663              		.loc 1 621 0
 664 0018 414B     		ldr	r3, .L15+12
 665 001a 0022     		movs	r2, #0
 666 001c 1A70     		strb	r2, [r3]
 622:Generated_Source\PSoC5/cyfitter_cfg.c **** 	CY_SET_REG16((void CYXDATA *)CYREG_PHUB_TDMEM0_ORIG_TD0, 82u*8u);	/* transfer size */
 667              		.loc 1 622 0
 668 001e 414B     		ldr	r3, .L15+16
 669 0020 4FF42472 		mov	r2, #656
 670 0024 1A80     		strh	r2, [r3]	@ movhi
 623:Generated_Source\PSoC5/cyfitter_cfg.c **** 	CY_SET_REG8((void CYXDATA *)(CYREG_PHUB_TDMEM0_ORIG_TD0+2u), 0x01u);	/* set next TD to 1 */
 671              		.loc 1 623 0
 672 0026 404B     		ldr	r3, .L15+20
 673 0028 0122     		movs	r2, #1
 674 002a 1A70     		strb	r2, [r3]
 624:Generated_Source\PSoC5/cyfitter_cfg.c **** 	CY_SET_REG8((void CYXDATA *)(CYREG_PHUB_TDMEM0_ORIG_TD0+3u), 0x03u);	/* set TD flags */
 675              		.loc 1 624 0
 676 002c 3F4B     		ldr	r3, .L15+24
 677 002e 0322     		movs	r2, #3
 678 0030 1A70     		strb	r2, [r3]
 625:Generated_Source\PSoC5/cyfitter_cfg.c **** 	CY_SET_REG16((void CYXDATA *)CYREG_PHUB_TDMEM0_ORIG_TD1, (uint16)((uint32)CFG_TD_LIST0 & 0x0000FFF
 679              		.loc 1 625 0
 680 0032 3F4B     		ldr	r3, .L15+28
 681 0034 3F4A     		ldr	r2, .L15+32
 682 0036 92B2     		uxth	r2, r2
 683 0038 1A80     		strh	r2, [r3]	@ movhi
 626:Generated_Source\PSoC5/cyfitter_cfg.c **** 	CY_SET_REG16((void CYXDATA *)(CYREG_PHUB_TDMEM0_ORIG_TD1+2u), CYDEV_PHUB_TDMEM1_BASE);	/* set td0'
 684              		.loc 1 626 0
 685 003a 3F4B     		ldr	r3, .L15+36
ARM GAS  C:\Users\pajoh\AppData\Local\Temp\cctC92Wc.s 			page 24


 686 003c 47F60802 		movw	r2, #30728
 687 0040 1A80     		strh	r2, [r3]	@ movhi
 627:Generated_Source\PSoC5/cyfitter_cfg.c **** 	CY_SET_REG16((void CYXDATA *)CYREG_PHUB_CFGMEM0_CFG1, (uint16)(CYDEV_FLASH_BASE >> 16));	/* set ch
 688              		.loc 1 627 0
 689 0042 3E4B     		ldr	r3, .L15+40
 690 0044 0022     		movs	r2, #0
 691 0046 1A80     		strh	r2, [r3]	@ movhi
 628:Generated_Source\PSoC5/cyfitter_cfg.c **** 	CY_SET_REG16((void CYXDATA *)(CYREG_PHUB_CFGMEM0_CFG1+2u), (uint16)(CYDEV_PHUB_TDMEM1_BASE >> 16))
 692              		.loc 1 628 0
 693 0048 3D4B     		ldr	r3, .L15+44
 694 004a 4FF48042 		mov	r2, #16384
 695 004e 1A80     		strh	r2, [r3]	@ movhi
 629:Generated_Source\PSoC5/cyfitter_cfg.c **** 	CY_SET_REG8((void CYXDATA *)(CYREG_PHUB_CH1_BASIC_STATUS+1u), 0x09u);	/* ch1 first TD: 9 */
 696              		.loc 1 629 0
 697 0050 3C4B     		ldr	r3, .L15+48
 698 0052 0922     		movs	r2, #9
 699 0054 1A70     		strb	r2, [r3]
 630:Generated_Source\PSoC5/cyfitter_cfg.c **** 	CY_SET_REG8((void CYXDATA *)(CYREG_PHUB_CH2_BASIC_STATUS+1u), 0x0Cu);	/* ch2 first TD: 12 */
 700              		.loc 1 630 0
 701 0056 3C4B     		ldr	r3, .L15+52
 702 0058 0C22     		movs	r2, #12
 703 005a 1A70     		strb	r2, [r3]
 631:Generated_Source\PSoC5/cyfitter_cfg.c **** 	CY_SET_REG8((void CYXDATA *)(CYREG_PHUB_CH5_BASIC_STATUS+1u), 0x12u);	/* ch5 first TD: 18 */
 704              		.loc 1 631 0
 705 005c 3B4B     		ldr	r3, .L15+56
 706 005e 1222     		movs	r2, #18
 707 0060 1A70     		strb	r2, [r3]
 632:Generated_Source\PSoC5/cyfitter_cfg.c **** 	CY_SET_REG8((void CYXDATA *)(CYREG_PHUB_CH6_BASIC_STATUS+1u), 0x18u);	/* ch6 first TD: 24 */
 708              		.loc 1 632 0
 709 0062 3B4B     		ldr	r3, .L15+60
 710 0064 1822     		movs	r2, #24
 711 0066 1A70     		strb	r2, [r3]
 633:Generated_Source\PSoC5/cyfitter_cfg.c **** 
 634:Generated_Source\PSoC5/cyfitter_cfg.c **** 	CY_CFG_MEMORY_BARRIER();
 712              		.loc 1 634 0
 713 0068 BFF35F8F 		dmb	sy
 635:Generated_Source\PSoC5/cyfitter_cfg.c **** 	CY_SET_REG8((void CYXDATA *)CYREG_PHUB_CH0_ACTION, 0x01u); /* cpu_req */
 714              		.loc 1 635 0
 715 006c 394B     		ldr	r3, .L15+64
 716 006e 0122     		movs	r2, #1
 717 0070 1A70     		strb	r2, [r3]
 636:Generated_Source\PSoC5/cyfitter_cfg.c **** 	CY_CFG_MEMORY_BARRIER();
 718              		.loc 1 636 0
 719 0072 BFF35F8F 		dmb	sy
 637:Generated_Source\PSoC5/cyfitter_cfg.c **** 
 638:Generated_Source\PSoC5/cyfitter_cfg.c **** 	/* Wait for TDs to be copied into TDMEM */
 639:Generated_Source\PSoC5/cyfitter_cfg.c **** 	while (CY_GET_REG16((void CYXDATA *)CYREG_PHUB_TDMEM0_ORIG_TD0) != 0u) { }
 720              		.loc 1 639 0
 721 0076 00BF     		nop
 722              	.L7:
 723              		.loc 1 639 0 is_stmt 0 discriminator 1
 724 0078 2A4B     		ldr	r3, .L15+16
 725 007a 1B88     		ldrh	r3, [r3]	@ movhi
 726 007c 9BB2     		uxth	r3, r3
 727 007e 002B     		cmp	r3, #0
 728 0080 FAD1     		bne	.L7
 640:Generated_Source\PSoC5/cyfitter_cfg.c **** 
ARM GAS  C:\Users\pajoh\AppData\Local\Temp\cctC92Wc.s 			page 25


 641:Generated_Source\PSoC5/cyfitter_cfg.c **** 	/* Recombine TD source table (CFG_TD_ADDR0) with full TD table (CFG_TD_LIST0) */
 642:Generated_Source\PSoC5/cyfitter_cfg.c **** 	for (i = 0u; i < 82u; i++)
 729              		.loc 1 642 0 is_stmt 1
 730 0082 0023     		movs	r3, #0
 731 0084 7B60     		str	r3, [r7, #4]
 732 0086 0DE0     		b	.L8
 733              	.L9:
 643:Generated_Source\PSoC5/cyfitter_cfg.c **** 	{
 644:Generated_Source\PSoC5/cyfitter_cfg.c **** 		CY_SET_REG16((void CYXDATA *)(CYREG_PHUB_TDMEM1_ORIG_TD1 + (sizeof(struct td_t)*i)), (uint16)(uin
 734              		.loc 1 644 0 discriminator 3
 735 0088 7B68     		ldr	r3, [r7, #4]
 736 008a DA00     		lsls	r2, r3, #3
 737 008c 324B     		ldr	r3, .L15+68
 738 008e 1344     		add	r3, r3, r2
 739 0090 1946     		mov	r1, r3
 740 0092 324A     		ldr	r2, .L15+72
 741 0094 7B68     		ldr	r3, [r7, #4]
 742 0096 52F82330 		ldr	r3, [r2, r3, lsl #2]
 743 009a 9BB2     		uxth	r3, r3
 744 009c 0B80     		strh	r3, [r1]	@ movhi
 642:Generated_Source\PSoC5/cyfitter_cfg.c **** 	{
 745              		.loc 1 642 0 discriminator 3
 746 009e 7B68     		ldr	r3, [r7, #4]
 747 00a0 0133     		adds	r3, r3, #1
 748 00a2 7B60     		str	r3, [r7, #4]
 749              	.L8:
 642:Generated_Source\PSoC5/cyfitter_cfg.c **** 	{
 750              		.loc 1 642 0 is_stmt 0 discriminator 1
 751 00a4 7B68     		ldr	r3, [r7, #4]
 752 00a6 512B     		cmp	r3, #81
 753 00a8 EED9     		bls	.L9
 645:Generated_Source\PSoC5/cyfitter_cfg.c **** 	}
 646:Generated_Source\PSoC5/cyfitter_cfg.c **** 
 647:Generated_Source\PSoC5/cyfitter_cfg.c **** 	CY_CFG_MEMORY_BARRIER();
 754              		.loc 1 647 0 is_stmt 1
 755 00aa BFF35F8F 		dmb	sy
 648:Generated_Source\PSoC5/cyfitter_cfg.c **** 	CY_SET_REG8((void CYXDATA *)CYREG_PHUB_CH0_ACTION, 0x01u); /* cpu_req */
 756              		.loc 1 648 0
 757 00ae 294B     		ldr	r3, .L15+64
 758 00b0 0122     		movs	r2, #1
 759 00b2 1A70     		strb	r2, [r3]
 649:Generated_Source\PSoC5/cyfitter_cfg.c **** 	CY_CFG_MEMORY_BARRIER();
 760              		.loc 1 649 0
 761 00b4 BFF35F8F 		dmb	sy
 650:Generated_Source\PSoC5/cyfitter_cfg.c **** 
 651:Generated_Source\PSoC5/cyfitter_cfg.c **** 	/* Wait for all DMA transfers to complete */
 652:Generated_Source\PSoC5/cyfitter_cfg.c **** 	while(0u != (CY_GET_REG8((void CYXDATA *)CYREG_PHUB_CH0_BASIC_STATUS) & 0x01u)){}
 762              		.loc 1 652 0
 763 00b8 00BF     		nop
 764              	.L10:
 765              		.loc 1 652 0 is_stmt 0 discriminator 1
 766 00ba 294B     		ldr	r3, .L15+76
 767 00bc 1B78     		ldrb	r3, [r3]
 768 00be DBB2     		uxtb	r3, r3
 769 00c0 03F00103 		and	r3, r3, #1
 770 00c4 002B     		cmp	r3, #0
 771 00c6 F8D1     		bne	.L10
ARM GAS  C:\Users\pajoh\AppData\Local\Temp\cctC92Wc.s 			page 26


 653:Generated_Source\PSoC5/cyfitter_cfg.c **** 	while(0u != (CY_GET_REG8((void CYXDATA *)CYREG_PHUB_CH1_BASIC_STATUS) & 0x01u)){}
 772              		.loc 1 653 0 is_stmt 1
 773 00c8 00BF     		nop
 774              	.L11:
 775              		.loc 1 653 0 is_stmt 0 discriminator 1
 776 00ca 264B     		ldr	r3, .L15+80
 777 00cc 1B78     		ldrb	r3, [r3]
 778 00ce DBB2     		uxtb	r3, r3
 779 00d0 03F00103 		and	r3, r3, #1
 780 00d4 002B     		cmp	r3, #0
 781 00d6 F8D1     		bne	.L11
 654:Generated_Source\PSoC5/cyfitter_cfg.c **** 	while(0u != (CY_GET_REG8((void CYXDATA *)CYREG_PHUB_CH2_BASIC_STATUS) & 0x01u)){}
 782              		.loc 1 654 0 is_stmt 1
 783 00d8 00BF     		nop
 784              	.L12:
 785              		.loc 1 654 0 is_stmt 0 discriminator 1
 786 00da 234B     		ldr	r3, .L15+84
 787 00dc 1B78     		ldrb	r3, [r3]
 788 00de DBB2     		uxtb	r3, r3
 789 00e0 03F00103 		and	r3, r3, #1
 790 00e4 002B     		cmp	r3, #0
 791 00e6 F8D1     		bne	.L12
 655:Generated_Source\PSoC5/cyfitter_cfg.c **** 	while(0u != (CY_GET_REG8((void CYXDATA *)CYREG_PHUB_CH5_BASIC_STATUS) & 0x01u)){}
 792              		.loc 1 655 0 is_stmt 1
 793 00e8 00BF     		nop
 794              	.L13:
 795              		.loc 1 655 0 is_stmt 0 discriminator 1
 796 00ea 204B     		ldr	r3, .L15+88
 797 00ec 1B78     		ldrb	r3, [r3]
 798 00ee DBB2     		uxtb	r3, r3
 799 00f0 03F00103 		and	r3, r3, #1
 800 00f4 002B     		cmp	r3, #0
 801 00f6 F8D1     		bne	.L13
 656:Generated_Source\PSoC5/cyfitter_cfg.c **** 	while(0u != (CY_GET_REG8((void CYXDATA *)CYREG_PHUB_CH6_BASIC_STATUS) & 0x01u)){}
 802              		.loc 1 656 0 is_stmt 1
 803 00f8 00BF     		nop
 804              	.L14:
 805              		.loc 1 656 0 is_stmt 0 discriminator 1
 806 00fa 1D4B     		ldr	r3, .L15+92
 807 00fc 1B78     		ldrb	r3, [r3]
 808 00fe DBB2     		uxtb	r3, r3
 809 0100 03F00103 		and	r3, r3, #1
 810 0104 002B     		cmp	r3, #0
 811 0106 F8D1     		bne	.L14
 657:Generated_Source\PSoC5/cyfitter_cfg.c **** 
 658:Generated_Source\PSoC5/cyfitter_cfg.c **** 
 659:Generated_Source\PSoC5/cyfitter_cfg.c **** }
 812              		.loc 1 659 0 is_stmt 1
 813 0108 00BF     		nop
 814 010a 0C37     		adds	r7, r7, #12
 815              		.cfi_def_cfa_offset 4
 816 010c BD46     		mov	sp, r7
 817              		.cfi_def_cfa_register 13
 818              		@ sp needed
 819 010e 80BC     		pop	{r7}
 820              		.cfi_restore 7
 821              		.cfi_def_cfa_offset 0
ARM GAS  C:\Users\pajoh\AppData\Local\Temp\cctC92Wc.s 			page 27


 822 0110 7047     		bx	lr
 823              	.L16:
 824 0112 00BF     		.align	2
 825              	.L15:
 826 0114 00000000 		.word	DMA_ZERO_VAL.4977
 827 0118 00760040 		.word	1073772032
 828 011c 10700040 		.word	1073770512
 829 0120 19700040 		.word	1073770521
 830 0124 00780040 		.word	1073772544
 831 0128 02780040 		.word	1073772546
 832 012c 03780040 		.word	1073772547
 833 0130 04780040 		.word	1073772548
 834 0134 28000000 		.word	CFG_TD_LIST0.4978
 835 0138 06780040 		.word	1073772550
 836 013c 04760040 		.word	1073772036
 837 0140 06760040 		.word	1073772038
 838 0144 29700040 		.word	1073770537
 839 0148 39700040 		.word	1073770553
 840 014c 69700040 		.word	1073770601
 841 0150 79700040 		.word	1073770617
 842 0154 14700040 		.word	1073770516
 843 0158 0C780040 		.word	1073772556
 844 015c 0C000000 		.word	CFG_TD_ADDR0.4979
 845 0160 18700040 		.word	1073770520
 846 0164 28700040 		.word	1073770536
 847 0168 38700040 		.word	1073770552
 848 016c 68700040 		.word	1073770600
 849 0170 78700040 		.word	1073770616
 850              		.cfi_endproc
 851              	.LFE4:
 852              		.size	cfg_dma_init, .-cfg_dma_init
 853              		.section	.text.ClockSetup,"ax",%progbits
 854              		.align	2
 855              		.thumb
 856              		.thumb_func
 857              		.type	ClockSetup, %function
 858              	ClockSetup:
 859              	.LFB5:
 660:Generated_Source\PSoC5/cyfitter_cfg.c **** /*******************************************************************************
 661:Generated_Source\PSoC5/cyfitter_cfg.c **** * Function Name: ClockSetup
 662:Generated_Source\PSoC5/cyfitter_cfg.c **** ********************************************************************************
 663:Generated_Source\PSoC5/cyfitter_cfg.c **** *
 664:Generated_Source\PSoC5/cyfitter_cfg.c **** * Summary:
 665:Generated_Source\PSoC5/cyfitter_cfg.c **** *  Performs the initialization of all of the clocks in the device based on the
 666:Generated_Source\PSoC5/cyfitter_cfg.c **** *  settings in the Clock tab of the DWR.  This includes enabling the requested
 667:Generated_Source\PSoC5/cyfitter_cfg.c **** *  clocks and setting the necessary dividers to produce the desired frequency. 
 668:Generated_Source\PSoC5/cyfitter_cfg.c **** *
 669:Generated_Source\PSoC5/cyfitter_cfg.c **** * Parameters:
 670:Generated_Source\PSoC5/cyfitter_cfg.c **** *  void
 671:Generated_Source\PSoC5/cyfitter_cfg.c **** *
 672:Generated_Source\PSoC5/cyfitter_cfg.c **** * Return:
 673:Generated_Source\PSoC5/cyfitter_cfg.c **** *  void
 674:Generated_Source\PSoC5/cyfitter_cfg.c **** *
 675:Generated_Source\PSoC5/cyfitter_cfg.c **** *******************************************************************************/
 676:Generated_Source\PSoC5/cyfitter_cfg.c **** static void ClockSetup(void);
 677:Generated_Source\PSoC5/cyfitter_cfg.c **** static void ClockSetup(void)
 678:Generated_Source\PSoC5/cyfitter_cfg.c **** {
ARM GAS  C:\Users\pajoh\AppData\Local\Temp\cctC92Wc.s 			page 28


 860              		.loc 1 678 0
 861              		.cfi_startproc
 862              		@ args = 0, pretend = 0, frame = 8
 863              		@ frame_needed = 1, uses_anonymous_args = 0
 864 0000 80B5     		push	{r7, lr}
 865              		.cfi_def_cfa_offset 8
 866              		.cfi_offset 7, -8
 867              		.cfi_offset 14, -4
 868 0002 82B0     		sub	sp, sp, #8
 869              		.cfi_def_cfa_offset 16
 870 0004 00AF     		add	r7, sp, #0
 871              		.cfi_def_cfa_register 7
 679:Generated_Source\PSoC5/cyfitter_cfg.c **** 	uint32 timeout;
 680:Generated_Source\PSoC5/cyfitter_cfg.c **** 	uint8 pllLock;
 681:Generated_Source\PSoC5/cyfitter_cfg.c **** 
 682:Generated_Source\PSoC5/cyfitter_cfg.c **** 
 683:Generated_Source\PSoC5/cyfitter_cfg.c **** 	/* Configure Digital Clocks based on settings from Clock DWR */
 684:Generated_Source\PSoC5/cyfitter_cfg.c **** 	CY_SET_XTND_REG16((void CYFAR *)(CYREG_CLKDIST_DCFG0_CFG0), 0x0000u);
 872              		.loc 1 684 0
 873 0006 4F4B     		ldr	r3, .L22
 874 0008 0022     		movs	r2, #0
 875 000a 1A80     		strh	r2, [r3]	@ movhi
 685:Generated_Source\PSoC5/cyfitter_cfg.c **** 	CY_SET_XTND_REG8((void CYFAR *)(CYREG_CLKDIST_DCFG0_CFG0 + 0x2u), 0x50u);
 876              		.loc 1 685 0
 877 000c 4E4B     		ldr	r3, .L22+4
 878 000e 5022     		movs	r2, #80
 879 0010 1A70     		strb	r2, [r3]
 686:Generated_Source\PSoC5/cyfitter_cfg.c **** 	CY_SET_XTND_REG16((void CYFAR *)(CYREG_CLKDIST_DCFG1_CFG0), 0x0003u);
 880              		.loc 1 686 0
 881 0012 4E4B     		ldr	r3, .L22+8
 882 0014 0322     		movs	r2, #3
 883 0016 1A80     		strh	r2, [r3]	@ movhi
 687:Generated_Source\PSoC5/cyfitter_cfg.c **** 	CY_SET_XTND_REG8((void CYFAR *)(CYREG_CLKDIST_DCFG1_CFG0 + 0x2u), 0x18u);
 884              		.loc 1 687 0
 885 0018 4D4B     		ldr	r3, .L22+12
 886 001a 1822     		movs	r2, #24
 887 001c 1A70     		strb	r2, [r3]
 688:Generated_Source\PSoC5/cyfitter_cfg.c **** 	CY_SET_XTND_REG16((void CYFAR *)(CYREG_CLKDIST_DCFG2_CFG0), 0x0017u);
 888              		.loc 1 688 0
 889 001e 4D4B     		ldr	r3, .L22+16
 890 0020 1722     		movs	r2, #23
 891 0022 1A80     		strh	r2, [r3]	@ movhi
 689:Generated_Source\PSoC5/cyfitter_cfg.c **** 	CY_SET_XTND_REG8((void CYFAR *)(CYREG_CLKDIST_DCFG2_CFG0 + 0x2u), 0x18u);
 892              		.loc 1 689 0
 893 0024 4C4B     		ldr	r3, .L22+20
 894 0026 1822     		movs	r2, #24
 895 0028 1A70     		strb	r2, [r3]
 690:Generated_Source\PSoC5/cyfitter_cfg.c **** 	CY_SET_XTND_REG16((void CYFAR *)(CYREG_CLKDIST_DCFG3_CFG0), 0x0033u);
 896              		.loc 1 690 0
 897 002a 4C4B     		ldr	r3, .L22+24
 898 002c 3322     		movs	r2, #51
 899 002e 1A80     		strh	r2, [r3]	@ movhi
 691:Generated_Source\PSoC5/cyfitter_cfg.c **** 	CY_SET_XTND_REG8((void CYFAR *)(CYREG_CLKDIST_DCFG3_CFG0 + 0x2u), 0x18u);
 900              		.loc 1 691 0
 901 0030 4B4B     		ldr	r3, .L22+28
 902 0032 1822     		movs	r2, #24
 903 0034 1A70     		strb	r2, [r3]
ARM GAS  C:\Users\pajoh\AppData\Local\Temp\cctC92Wc.s 			page 29


 692:Generated_Source\PSoC5/cyfitter_cfg.c **** 	CY_SET_XTND_REG16((void CYFAR *)(CYREG_CLKDIST_DCFG4_CFG0), 0x005Fu);
 904              		.loc 1 692 0
 905 0036 4B4B     		ldr	r3, .L22+32
 906 0038 5F22     		movs	r2, #95
 907 003a 1A80     		strh	r2, [r3]	@ movhi
 693:Generated_Source\PSoC5/cyfitter_cfg.c **** 	CY_SET_XTND_REG8((void CYFAR *)(CYREG_CLKDIST_DCFG4_CFG0 + 0x2u), 0x18u);
 908              		.loc 1 693 0
 909 003c 4A4B     		ldr	r3, .L22+36
 910 003e 1822     		movs	r2, #24
 911 0040 1A70     		strb	r2, [r3]
 694:Generated_Source\PSoC5/cyfitter_cfg.c **** 	CY_SET_XTND_REG16((void CYFAR *)(CYREG_CLKDIST_DCFG5_CFG0), 0xBB7Fu);
 912              		.loc 1 694 0
 913 0042 4A4B     		ldr	r3, .L22+40
 914 0044 4BF67F32 		movw	r2, #47999
 915 0048 1A80     		strh	r2, [r3]	@ movhi
 695:Generated_Source\PSoC5/cyfitter_cfg.c **** 	CY_SET_XTND_REG8((void CYFAR *)(CYREG_CLKDIST_DCFG5_CFG0 + 0x2u), 0x18u);
 916              		.loc 1 695 0
 917 004a 494B     		ldr	r3, .L22+44
 918 004c 1822     		movs	r2, #24
 919 004e 1A70     		strb	r2, [r3]
 696:Generated_Source\PSoC5/cyfitter_cfg.c **** 	CY_SET_XTND_REG16((void CYFAR *)(CYREG_CLKDIST_DCFG6_CFG0), 0x03E7u);
 920              		.loc 1 696 0
 921 0050 484B     		ldr	r3, .L22+48
 922 0052 40F2E732 		movw	r2, #999
 923 0056 1A80     		strh	r2, [r3]	@ movhi
 697:Generated_Source\PSoC5/cyfitter_cfg.c **** 	CY_SET_XTND_REG8((void CYFAR *)(CYREG_CLKDIST_DCFG6_CFG0 + 0x2u), 0x1Bu);
 924              		.loc 1 697 0
 925 0058 474B     		ldr	r3, .L22+52
 926 005a 1B22     		movs	r2, #27
 927 005c 1A70     		strb	r2, [r3]
 698:Generated_Source\PSoC5/cyfitter_cfg.c **** 
 699:Generated_Source\PSoC5/cyfitter_cfg.c **** 	/* Configure Analog Clocks based on settings from Clock DWR */
 700:Generated_Source\PSoC5/cyfitter_cfg.c **** 	CYCONFIGCPY((void CYFAR *)(CYREG_CLKDIST_ACFG0_CFG0), (const void CYFAR *)(BS_CYDEV_CLKDIST_ACFG0_
 928              		.loc 1 700 0
 929 005e 0422     		movs	r2, #4
 930 0060 4649     		ldr	r1, .L22+56
 931 0062 4748     		ldr	r0, .L22+60
 932 0064 FFF7FEFF 		bl	CYCONFIGCPY
 701:Generated_Source\PSoC5/cyfitter_cfg.c **** 
 702:Generated_Source\PSoC5/cyfitter_cfg.c **** 	/* Configure ILO based on settings from Clock DWR */
 703:Generated_Source\PSoC5/cyfitter_cfg.c **** 	CY_SET_XTND_REG8((void CYFAR *)(CYREG_SLOWCLK_ILO_CR0), 0x06u);
 933              		.loc 1 703 0
 934 0068 464B     		ldr	r3, .L22+64
 935 006a 0622     		movs	r2, #6
 936 006c 1A70     		strb	r2, [r3]
 704:Generated_Source\PSoC5/cyfitter_cfg.c **** 
 705:Generated_Source\PSoC5/cyfitter_cfg.c **** 	/* Configure IMO based on settings from Clock DWR */
 706:Generated_Source\PSoC5/cyfitter_cfg.c **** 	CY_SET_XTND_REG8((void CYFAR *)(CYREG_IMO_TR1), (CY_GET_XTND_REG8((void CYFAR *)CYREG_FLSHID_CUST_
 937              		.loc 1 706 0
 938 006e 464B     		ldr	r3, .L22+68
 939 0070 464A     		ldr	r2, .L22+72
 940 0072 1278     		ldrb	r2, [r2]
 941 0074 D2B2     		uxtb	r2, r2
 942 0076 1A70     		strb	r2, [r3]
 707:Generated_Source\PSoC5/cyfitter_cfg.c **** 	CY_SET_XTND_REG8((void CYFAR *)(CYREG_FASTCLK_IMO_CR), 0x52u);
 943              		.loc 1 707 0
 944 0078 454B     		ldr	r3, .L22+76
ARM GAS  C:\Users\pajoh\AppData\Local\Temp\cctC92Wc.s 			page 30


 945 007a 5222     		movs	r2, #82
 946 007c 1A70     		strb	r2, [r3]
 708:Generated_Source\PSoC5/cyfitter_cfg.c **** 
 709:Generated_Source\PSoC5/cyfitter_cfg.c **** 	/* Configure PLL based on settings from Clock DWR */
 710:Generated_Source\PSoC5/cyfitter_cfg.c **** 	CY_SET_XTND_REG16((void CYFAR *)(CYREG_FASTCLK_PLL_P), 0x0710u);
 947              		.loc 1 710 0
 948 007e 454B     		ldr	r3, .L22+80
 949 0080 4FF4E262 		mov	r2, #1808
 950 0084 1A80     		strh	r2, [r3]	@ movhi
 711:Generated_Source\PSoC5/cyfitter_cfg.c **** 	CY_SET_XTND_REG16((void CYFAR *)(CYREG_FASTCLK_PLL_CFG0), 0x1251u);
 951              		.loc 1 711 0
 952 0086 444B     		ldr	r3, .L22+84
 953 0088 41F25122 		movw	r2, #4689
 954 008c 1A80     		strh	r2, [r3]	@ movhi
 712:Generated_Source\PSoC5/cyfitter_cfg.c **** 	/* Wait up to 250us for the PLL to lock */
 713:Generated_Source\PSoC5/cyfitter_cfg.c **** 	pllLock = 0u;
 955              		.loc 1 713 0
 956 008e 0023     		movs	r3, #0
 957 0090 FB70     		strb	r3, [r7, #3]
 714:Generated_Source\PSoC5/cyfitter_cfg.c **** 	for (timeout = 250u / 10u; (timeout > 0u) && (pllLock != 0x03u); timeout--)
 958              		.loc 1 714 0
 959 0092 1923     		movs	r3, #25
 960 0094 7B60     		str	r3, [r7, #4]
 961 0096 13E0     		b	.L18
 962              	.L20:
 715:Generated_Source\PSoC5/cyfitter_cfg.c **** 	{ 
 716:Generated_Source\PSoC5/cyfitter_cfg.c **** 		pllLock = 0x03u & ((uint8)((uint8)pllLock << 1) | ((CY_GET_XTND_REG8((void CYFAR *)CYREG_FASTCLK_
 963              		.loc 1 716 0 discriminator 4
 964 0098 FB78     		ldrb	r3, [r7, #3]
 965 009a 5B00     		lsls	r3, r3, #1
 966 009c DAB2     		uxtb	r2, r3
 967 009e 3F4B     		ldr	r3, .L22+88
 968 00a0 1B78     		ldrb	r3, [r3]
 969 00a2 DBB2     		uxtb	r3, r3
 970 00a4 03F00103 		and	r3, r3, #1
 971 00a8 DBB2     		uxtb	r3, r3
 972 00aa 1343     		orrs	r3, r3, r2
 973 00ac DBB2     		uxtb	r3, r3
 974 00ae 03F00303 		and	r3, r3, #3
 975 00b2 FB70     		strb	r3, [r7, #3]
 717:Generated_Source\PSoC5/cyfitter_cfg.c **** 		CyDelayCycles(10u * 12u); /* Delay 10us based on 12MHz clock */
 976              		.loc 1 717 0 discriminator 4
 977 00b4 7820     		movs	r0, #120
 978 00b6 FFF7FEFF 		bl	CyDelayCycles
 714:Generated_Source\PSoC5/cyfitter_cfg.c **** 	for (timeout = 250u / 10u; (timeout > 0u) && (pllLock != 0x03u); timeout--)
 979              		.loc 1 714 0 discriminator 4
 980 00ba 7B68     		ldr	r3, [r7, #4]
 981 00bc 013B     		subs	r3, r3, #1
 982 00be 7B60     		str	r3, [r7, #4]
 983              	.L18:
 714:Generated_Source\PSoC5/cyfitter_cfg.c **** 	for (timeout = 250u / 10u; (timeout > 0u) && (pllLock != 0x03u); timeout--)
 984              		.loc 1 714 0 is_stmt 0 discriminator 1
 985 00c0 7B68     		ldr	r3, [r7, #4]
 986 00c2 002B     		cmp	r3, #0
 987 00c4 02D0     		beq	.L19
 714:Generated_Source\PSoC5/cyfitter_cfg.c **** 	for (timeout = 250u / 10u; (timeout > 0u) && (pllLock != 0x03u); timeout--)
 988              		.loc 1 714 0 discriminator 3
ARM GAS  C:\Users\pajoh\AppData\Local\Temp\cctC92Wc.s 			page 31


 989 00c6 FB78     		ldrb	r3, [r7, #3]	@ zero_extendqisi2
 990 00c8 032B     		cmp	r3, #3
 991 00ca E5D1     		bne	.L20
 992              	.L19:
 718:Generated_Source\PSoC5/cyfitter_cfg.c **** 	}
 719:Generated_Source\PSoC5/cyfitter_cfg.c **** 	/* If we ran out of time the PLL didn't lock so go to the error function */
 720:Generated_Source\PSoC5/cyfitter_cfg.c **** 	if (timeout == 0u)
 993              		.loc 1 720 0 is_stmt 1
 994 00cc 7B68     		ldr	r3, [r7, #4]
 995 00ce 002B     		cmp	r3, #0
 996 00d0 02D1     		bne	.L21
 721:Generated_Source\PSoC5/cyfitter_cfg.c **** 	{
 722:Generated_Source\PSoC5/cyfitter_cfg.c **** 		CyClockStartupError(CYCLOCKSTART_PLL_ERROR);
 997              		.loc 1 722 0
 998 00d2 0320     		movs	r0, #3
 999 00d4 FFF7FEFF 		bl	CyClockStartupError
 1000              	.L21:
 723:Generated_Source\PSoC5/cyfitter_cfg.c **** 	}
 724:Generated_Source\PSoC5/cyfitter_cfg.c **** 
 725:Generated_Source\PSoC5/cyfitter_cfg.c **** 	/* Configure Bus/Master Clock based on settings from Clock DWR */
 726:Generated_Source\PSoC5/cyfitter_cfg.c **** 	CY_SET_XTND_REG16((void CYFAR *)(CYREG_CLKDIST_MSTR0), 0x0100u);
 1001              		.loc 1 726 0
 1002 00d8 314B     		ldr	r3, .L22+92
 1003 00da 4FF48072 		mov	r2, #256
 1004 00de 1A80     		strh	r2, [r3]	@ movhi
 727:Generated_Source\PSoC5/cyfitter_cfg.c **** 	CY_SET_XTND_REG8((void CYFAR *)(CYREG_CLKDIST_MSTR0), 0x07u);
 1005              		.loc 1 727 0
 1006 00e0 2F4B     		ldr	r3, .L22+92
 1007 00e2 0722     		movs	r2, #7
 1008 00e4 1A70     		strb	r2, [r3]
 728:Generated_Source\PSoC5/cyfitter_cfg.c **** 	CY_SET_XTND_REG8((void CYFAR *)(CYREG_CLKDIST_BCFG0), 0x00u);
 1009              		.loc 1 728 0
 1010 00e6 2F4B     		ldr	r3, .L22+96
 1011 00e8 0022     		movs	r2, #0
 1012 00ea 1A70     		strb	r2, [r3]
 729:Generated_Source\PSoC5/cyfitter_cfg.c **** 	CY_SET_XTND_REG8((void CYFAR *)(CYREG_CLKDIST_BCFG2), 0x48u);
 1013              		.loc 1 729 0
 1014 00ec 2E4B     		ldr	r3, .L22+100
 1015 00ee 4822     		movs	r2, #72
 1016 00f0 1A70     		strb	r2, [r3]
 730:Generated_Source\PSoC5/cyfitter_cfg.c **** 	CY_SET_XTND_REG8((void CYFAR *)(CYREG_CLKDIST_MSTR0), 0x00u);
 1017              		.loc 1 730 0
 1018 00f2 2B4B     		ldr	r3, .L22+92
 1019 00f4 0022     		movs	r2, #0
 1020 00f6 1A70     		strb	r2, [r3]
 731:Generated_Source\PSoC5/cyfitter_cfg.c **** 
 732:Generated_Source\PSoC5/cyfitter_cfg.c **** 	/* Configure USB Clock based on settings from Clock DWR */
 733:Generated_Source\PSoC5/cyfitter_cfg.c **** 	CY_SET_XTND_REG8((void CYFAR *)(CYREG_CLKDIST_UCFG), 0x00u);
 1021              		.loc 1 733 0
 1022 00f8 2C4B     		ldr	r3, .L22+104
 1023 00fa 0022     		movs	r2, #0
 1024 00fc 1A70     		strb	r2, [r3]
 734:Generated_Source\PSoC5/cyfitter_cfg.c **** 	CY_SET_XTND_REG8((void CYFAR *)(CYREG_CLKDIST_LD), 0x02u);
 1025              		.loc 1 734 0
 1026 00fe 2C4B     		ldr	r3, .L22+108
 1027 0100 0222     		movs	r2, #2
 1028 0102 1A70     		strb	r2, [r3]
ARM GAS  C:\Users\pajoh\AppData\Local\Temp\cctC92Wc.s 			page 32


 735:Generated_Source\PSoC5/cyfitter_cfg.c **** 	CY_SET_XTND_REG8((void CYFAR *)(CYREG_CLKDIST_DLY1), 0x04u);
 1029              		.loc 1 735 0
 1030 0104 2B4B     		ldr	r3, .L22+112
 1031 0106 0422     		movs	r2, #4
 1032 0108 1A70     		strb	r2, [r3]
 736:Generated_Source\PSoC5/cyfitter_cfg.c **** 
 737:Generated_Source\PSoC5/cyfitter_cfg.c **** 	CY_SET_XTND_REG8((void CYFAR *)(CYREG_PM_ACT_CFG2), ((CY_GET_XTND_REG8((void CYFAR *)CYREG_PM_ACT_
 1033              		.loc 1 737 0
 1034 010a 2B4A     		ldr	r2, .L22+116
 1035 010c 2A4B     		ldr	r3, .L22+116
 1036 010e 1B78     		ldrb	r3, [r3]
 1037 0110 DBB2     		uxtb	r3, r3
 1038 0112 43F07F03 		orr	r3, r3, #127
 1039 0116 DBB2     		uxtb	r3, r3
 1040 0118 1370     		strb	r3, [r2]
 738:Generated_Source\PSoC5/cyfitter_cfg.c **** 	CY_SET_XTND_REG8((void CYFAR *)(CYREG_PM_ACT_CFG1), ((CY_GET_XTND_REG8((void CYFAR *)CYREG_PM_ACT_
 1041              		.loc 1 738 0
 1042 011a 284A     		ldr	r2, .L22+120
 1043 011c 274B     		ldr	r3, .L22+120
 1044 011e 1B78     		ldrb	r3, [r3]
 1045 0120 DBB2     		uxtb	r3, r3
 1046 0122 43F00103 		orr	r3, r3, #1
 1047 0126 DBB2     		uxtb	r3, r3
 1048 0128 1370     		strb	r3, [r2]
 739:Generated_Source\PSoC5/cyfitter_cfg.c **** 	CY_SET_XTND_REG8((void CYFAR *)(CYREG_PM_ACT_CFG0), ((CY_GET_XTND_REG8((void CYFAR *)CYREG_PM_ACT_
 1049              		.loc 1 739 0
 1050 012a 254A     		ldr	r2, .L22+124
 1051 012c 244B     		ldr	r3, .L22+124
 1052 012e 1B78     		ldrb	r3, [r3]
 1053 0130 DBB2     		uxtb	r3, r3
 1054 0132 63F07F03 		orn	r3, r3, #127
 1055 0136 DBB2     		uxtb	r3, r3
 1056 0138 1370     		strb	r3, [r2]
 740:Generated_Source\PSoC5/cyfitter_cfg.c **** }
 1057              		.loc 1 740 0
 1058 013a 00BF     		nop
 1059 013c 0837     		adds	r7, r7, #8
 1060              		.cfi_def_cfa_offset 8
 1061 013e BD46     		mov	sp, r7
 1062              		.cfi_def_cfa_register 13
 1063              		@ sp needed
 1064 0140 80BD     		pop	{r7, pc}
 1065              	.L23:
 1066 0142 00BF     		.align	2
 1067              	.L22:
 1068 0144 80400040 		.word	1073758336
 1069 0148 82400040 		.word	1073758338
 1070 014c 84400040 		.word	1073758340
 1071 0150 86400040 		.word	1073758342
 1072 0154 88400040 		.word	1073758344
 1073 0158 8A400040 		.word	1073758346
 1074 015c 8C400040 		.word	1073758348
 1075 0160 8E400040 		.word	1073758350
 1076 0164 90400040 		.word	1073758352
 1077 0168 92400040 		.word	1073758354
 1078 016c 94400040 		.word	1073758356
 1079 0170 96400040 		.word	1073758358
ARM GAS  C:\Users\pajoh\AppData\Local\Temp\cctC92Wc.s 			page 33


 1080 0174 98400040 		.word	1073758360
 1081 0178 9A400040 		.word	1073758362
 1082 017c BC1C0048 		.word	1207966908
 1083 0180 00410040 		.word	1073758464
 1084 0184 00430040 		.word	1073758976
 1085 0188 A1460040 		.word	1073759905
 1086 018c 0F010049 		.word	1224737039
 1087 0190 00420040 		.word	1073758720
 1088 0194 22420040 		.word	1073758754
 1089 0198 20420040 		.word	1073758752
 1090 019c 25420040 		.word	1073758757
 1091 01a0 04400040 		.word	1073758212
 1092 01a4 06400040 		.word	1073758214
 1093 01a8 08400040 		.word	1073758216
 1094 01ac 09400040 		.word	1073758217
 1095 01b0 01400040 		.word	1073758209
 1096 01b4 0B400040 		.word	1073758219
 1097 01b8 A2430040 		.word	1073759138
 1098 01bc A1430040 		.word	1073759137
 1099 01c0 A0430040 		.word	1073759136
 1100              		.cfi_endproc
 1101              	.LFE5:
 1102              		.size	ClockSetup, .-ClockSetup
 1103              		.section	.text.AnalogSetDefault,"ax",%progbits
 1104              		.align	2
 1105              		.thumb
 1106              		.thumb_func
 1107              		.type	AnalogSetDefault, %function
 1108              	AnalogSetDefault:
 1109              	.LFB6:
 741:Generated_Source\PSoC5/cyfitter_cfg.c **** 
 742:Generated_Source\PSoC5/cyfitter_cfg.c **** 
 743:Generated_Source\PSoC5/cyfitter_cfg.c **** /* Analog API Functions */
 744:Generated_Source\PSoC5/cyfitter_cfg.c **** 
 745:Generated_Source\PSoC5/cyfitter_cfg.c **** 
 746:Generated_Source\PSoC5/cyfitter_cfg.c **** /*******************************************************************************
 747:Generated_Source\PSoC5/cyfitter_cfg.c **** * Function Name: AnalogSetDefault
 748:Generated_Source\PSoC5/cyfitter_cfg.c **** ********************************************************************************
 749:Generated_Source\PSoC5/cyfitter_cfg.c **** *
 750:Generated_Source\PSoC5/cyfitter_cfg.c **** * Summary:
 751:Generated_Source\PSoC5/cyfitter_cfg.c **** *  Sets up the analog portions of the chip to default values based on chip
 752:Generated_Source\PSoC5/cyfitter_cfg.c **** *  configuration options from the project.
 753:Generated_Source\PSoC5/cyfitter_cfg.c **** *
 754:Generated_Source\PSoC5/cyfitter_cfg.c **** * Parameters:
 755:Generated_Source\PSoC5/cyfitter_cfg.c **** *  void
 756:Generated_Source\PSoC5/cyfitter_cfg.c **** *
 757:Generated_Source\PSoC5/cyfitter_cfg.c **** * Return:
 758:Generated_Source\PSoC5/cyfitter_cfg.c **** *  void
 759:Generated_Source\PSoC5/cyfitter_cfg.c **** *
 760:Generated_Source\PSoC5/cyfitter_cfg.c **** *******************************************************************************/
 761:Generated_Source\PSoC5/cyfitter_cfg.c **** static void AnalogSetDefault(void);
 762:Generated_Source\PSoC5/cyfitter_cfg.c **** static void AnalogSetDefault(void)
 763:Generated_Source\PSoC5/cyfitter_cfg.c **** {
 1110              		.loc 1 763 0
 1111              		.cfi_startproc
 1112              		@ args = 0, pretend = 0, frame = 8
 1113              		@ frame_needed = 1, uses_anonymous_args = 0
ARM GAS  C:\Users\pajoh\AppData\Local\Temp\cctC92Wc.s 			page 34


 1114              		@ link register save eliminated.
 1115 0000 80B4     		push	{r7}
 1116              		.cfi_def_cfa_offset 4
 1117              		.cfi_offset 7, -4
 1118 0002 83B0     		sub	sp, sp, #12
 1119              		.cfi_def_cfa_offset 16
 1120 0004 00AF     		add	r7, sp, #0
 1121              		.cfi_def_cfa_register 7
 764:Generated_Source\PSoC5/cyfitter_cfg.c **** 	uint8 bg_xover_inl_trim = CY_GET_XTND_REG8((void CYFAR *)(CYREG_FLSHID_MFG_CFG_BG_XOVER_INL_TRIM +
 1122              		.loc 1 764 0
 1123 0006 0F4B     		ldr	r3, .L25
 1124 0008 1B78     		ldrb	r3, [r3]
 1125 000a FB71     		strb	r3, [r7, #7]
 765:Generated_Source\PSoC5/cyfitter_cfg.c **** 	CY_SET_XTND_REG8((void CYFAR *)(CYREG_BG_DFT0), (bg_xover_inl_trim & 0x07u));
 1126              		.loc 1 765 0
 1127 000c 0E4A     		ldr	r2, .L25+4
 1128 000e FB79     		ldrb	r3, [r7, #7]
 1129 0010 03F00703 		and	r3, r3, #7
 1130 0014 DBB2     		uxtb	r3, r3
 1131 0016 1370     		strb	r3, [r2]
 766:Generated_Source\PSoC5/cyfitter_cfg.c **** 	CY_SET_XTND_REG8((void CYFAR *)(CYREG_BG_DFT1), ((bg_xover_inl_trim >> 4) & 0x0Fu));
 1132              		.loc 1 766 0
 1133 0018 0C4A     		ldr	r2, .L25+8
 1134 001a FB79     		ldrb	r3, [r7, #7]	@ zero_extendqisi2
 1135 001c 1B09     		lsrs	r3, r3, #4
 1136 001e DBB2     		uxtb	r3, r3
 1137 0020 1370     		strb	r3, [r2]
 767:Generated_Source\PSoC5/cyfitter_cfg.c **** 	CY_SET_XTND_REG8((void CYFAR *)CYREG_PRT3_AG, 0x08u);
 1138              		.loc 1 767 0
 1139 0022 0B4B     		ldr	r3, .L25+12
 1140 0024 0822     		movs	r2, #8
 1141 0026 1A70     		strb	r2, [r3]
 768:Generated_Source\PSoC5/cyfitter_cfg.c **** 	CY_SET_XTND_REG8((void CYFAR *)CYREG_DSM0_SW0, 0x80u);
 1142              		.loc 1 768 0
 1143 0028 0A4B     		ldr	r3, .L25+16
 1144 002a 8022     		movs	r2, #128
 1145 002c 1A70     		strb	r2, [r3]
 769:Generated_Source\PSoC5/cyfitter_cfg.c **** 	CY_SET_XTND_REG8((void CYFAR *)CYREG_BUS_SW0, 0x80u);
 1146              		.loc 1 769 0
 1147 002e 0A4B     		ldr	r3, .L25+20
 1148 0030 8022     		movs	r2, #128
 1149 0032 1A70     		strb	r2, [r3]
 770:Generated_Source\PSoC5/cyfitter_cfg.c **** 	CY_SET_XTND_REG8((void CYFAR *)CYREG_PUMP_CR0, 0x44u);
 1150              		.loc 1 770 0
 1151 0034 094B     		ldr	r3, .L25+24
 1152 0036 4422     		movs	r2, #68
 1153 0038 1A70     		strb	r2, [r3]
 771:Generated_Source\PSoC5/cyfitter_cfg.c **** }
 1154              		.loc 1 771 0
 1155 003a 00BF     		nop
 1156 003c 0C37     		adds	r7, r7, #12
 1157              		.cfi_def_cfa_offset 4
 1158 003e BD46     		mov	sp, r7
 1159              		.cfi_def_cfa_register 13
 1160              		@ sp needed
 1161 0040 80BC     		pop	{r7}
 1162              		.cfi_restore 7
ARM GAS  C:\Users\pajoh\AppData\Local\Temp\cctC92Wc.s 			page 35


 1163              		.cfi_def_cfa_offset 0
 1164 0042 7047     		bx	lr
 1165              	.L26:
 1166              		.align	2
 1167              	.L25:
 1168 0044 CF010049 		.word	1224737231
 1169 0048 6E580040 		.word	1073764462
 1170 004c 6F580040 		.word	1073764463
 1171 0050 3D510040 		.word	1073762621
 1172 0054 005B0040 		.word	1073765120
 1173 0058 585B0040 		.word	1073765208
 1174 005c 76580040 		.word	1073764470
 1175              		.cfi_endproc
 1176              	.LFE6:
 1177              		.size	AnalogSetDefault, .-AnalogSetDefault
 1178              		.section	.text.SetAnalogRoutingPumps,"ax",%progbits
 1179              		.align	2
 1180              		.global	SetAnalogRoutingPumps
 1181              		.thumb
 1182              		.thumb_func
 1183              		.type	SetAnalogRoutingPumps, %function
 1184              	SetAnalogRoutingPumps:
 1185              	.LFB7:
 772:Generated_Source\PSoC5/cyfitter_cfg.c **** 
 773:Generated_Source\PSoC5/cyfitter_cfg.c **** 
 774:Generated_Source\PSoC5/cyfitter_cfg.c **** /*******************************************************************************
 775:Generated_Source\PSoC5/cyfitter_cfg.c **** * Function Name: SetAnalogRoutingPumps
 776:Generated_Source\PSoC5/cyfitter_cfg.c **** ********************************************************************************
 777:Generated_Source\PSoC5/cyfitter_cfg.c **** *
 778:Generated_Source\PSoC5/cyfitter_cfg.c **** * Summary:
 779:Generated_Source\PSoC5/cyfitter_cfg.c **** * Enables or disables the analog pumps feeding analog routing switches.
 780:Generated_Source\PSoC5/cyfitter_cfg.c **** * Intended to be called at startup, based on the Vdda system configuration;
 781:Generated_Source\PSoC5/cyfitter_cfg.c **** * may be called during operation when the user informs us that the Vdda voltage
 782:Generated_Source\PSoC5/cyfitter_cfg.c **** * crossed the pump threshold.
 783:Generated_Source\PSoC5/cyfitter_cfg.c **** *
 784:Generated_Source\PSoC5/cyfitter_cfg.c **** * Parameters:
 785:Generated_Source\PSoC5/cyfitter_cfg.c **** *  enabled - 1 to enable the pumps, 0 to disable the pumps
 786:Generated_Source\PSoC5/cyfitter_cfg.c **** *
 787:Generated_Source\PSoC5/cyfitter_cfg.c **** * Return:
 788:Generated_Source\PSoC5/cyfitter_cfg.c **** *  void
 789:Generated_Source\PSoC5/cyfitter_cfg.c **** *
 790:Generated_Source\PSoC5/cyfitter_cfg.c **** *******************************************************************************/
 791:Generated_Source\PSoC5/cyfitter_cfg.c **** void SetAnalogRoutingPumps(uint8 enabled)
 792:Generated_Source\PSoC5/cyfitter_cfg.c **** {
 1186              		.loc 1 792 0
 1187              		.cfi_startproc
 1188              		@ args = 0, pretend = 0, frame = 16
 1189              		@ frame_needed = 1, uses_anonymous_args = 0
 1190              		@ link register save eliminated.
 1191 0000 80B4     		push	{r7}
 1192              		.cfi_def_cfa_offset 4
 1193              		.cfi_offset 7, -4
 1194 0002 85B0     		sub	sp, sp, #20
 1195              		.cfi_def_cfa_offset 24
 1196 0004 00AF     		add	r7, sp, #0
 1197              		.cfi_def_cfa_register 7
 1198 0006 0346     		mov	r3, r0
ARM GAS  C:\Users\pajoh\AppData\Local\Temp\cctC92Wc.s 			page 36


 1199 0008 FB71     		strb	r3, [r7, #7]
 793:Generated_Source\PSoC5/cyfitter_cfg.c **** 	uint8 regValue = CY_GET_XTND_REG8((void CYFAR *)CYREG_PUMP_CR0);
 1200              		.loc 1 793 0
 1201 000a 0B4B     		ldr	r3, .L30
 1202 000c 1B78     		ldrb	r3, [r3]
 1203 000e FB73     		strb	r3, [r7, #15]
 794:Generated_Source\PSoC5/cyfitter_cfg.c **** 	if (enabled != 0u)
 1204              		.loc 1 794 0
 1205 0010 FB79     		ldrb	r3, [r7, #7]	@ zero_extendqisi2
 1206 0012 002B     		cmp	r3, #0
 1207 0014 04D0     		beq	.L28
 795:Generated_Source\PSoC5/cyfitter_cfg.c **** 	{
 796:Generated_Source\PSoC5/cyfitter_cfg.c **** 		regValue |= 0x22u;
 1208              		.loc 1 796 0
 1209 0016 FB7B     		ldrb	r3, [r7, #15]
 1210 0018 43F02203 		orr	r3, r3, #34
 1211 001c FB73     		strb	r3, [r7, #15]
 1212 001e 03E0     		b	.L29
 1213              	.L28:
 797:Generated_Source\PSoC5/cyfitter_cfg.c **** 	}
 798:Generated_Source\PSoC5/cyfitter_cfg.c **** 	else
 799:Generated_Source\PSoC5/cyfitter_cfg.c **** 	{
 800:Generated_Source\PSoC5/cyfitter_cfg.c **** 		regValue &= (uint8)~0x22u;
 1214              		.loc 1 800 0
 1215 0020 FB7B     		ldrb	r3, [r7, #15]
 1216 0022 23F02203 		bic	r3, r3, #34
 1217 0026 FB73     		strb	r3, [r7, #15]
 1218              	.L29:
 801:Generated_Source\PSoC5/cyfitter_cfg.c **** 	}
 802:Generated_Source\PSoC5/cyfitter_cfg.c **** 	CY_SET_XTND_REG8((void CYFAR *)CYREG_PUMP_CR0, regValue);
 1219              		.loc 1 802 0
 1220 0028 034A     		ldr	r2, .L30
 1221 002a FB7B     		ldrb	r3, [r7, #15]
 1222 002c 1370     		strb	r3, [r2]
 803:Generated_Source\PSoC5/cyfitter_cfg.c **** }
 1223              		.loc 1 803 0
 1224 002e 00BF     		nop
 1225 0030 1437     		adds	r7, r7, #20
 1226              		.cfi_def_cfa_offset 4
 1227 0032 BD46     		mov	sp, r7
 1228              		.cfi_def_cfa_register 13
 1229              		@ sp needed
 1230 0034 80BC     		pop	{r7}
 1231              		.cfi_restore 7
 1232              		.cfi_def_cfa_offset 0
 1233 0036 7047     		bx	lr
 1234              	.L31:
 1235              		.align	2
 1236              	.L30:
 1237 0038 76580040 		.word	1073764470
 1238              		.cfi_endproc
 1239              	.LFE7:
 1240              		.size	SetAnalogRoutingPumps, .-SetAnalogRoutingPumps
 1241              		.global	ADC_DelSig_1_AMux__addrTable
 1242              		.section	.rodata
 1243              		.align	2
 1244              		.type	ADC_DelSig_1_AMux__addrTable, %object
ARM GAS  C:\Users\pajoh\AppData\Local\Temp\cctC92Wc.s 			page 37


 1245              		.size	ADC_DelSig_1_AMux__addrTable, 8
 1246              	ADC_DelSig_1_AMux__addrTable:
 1247 0000 035B0040 		.word	1073765123
 1248 0004 24430040 		.word	1073759012
 1249              		.global	ADC_DelSig_1_AMux__maskTable
 1250              		.align	2
 1251              		.type	ADC_DelSig_1_AMux__maskTable, %object
 1252              		.size	ADC_DelSig_1_AMux__maskTable, 2
 1253              	ADC_DelSig_1_AMux__maskTable:
 1254 0008 40       		.byte	64
 1255 0009 00       		.byte	0
 1256              		.section	.text.ADC_DelSig_1_AMux_Set,"ax",%progbits
 1257              		.align	2
 1258              		.global	ADC_DelSig_1_AMux_Set
 1259              		.thumb
 1260              		.thumb_func
 1261              		.type	ADC_DelSig_1_AMux_Set, %function
 1262              	ADC_DelSig_1_AMux_Set:
 1263              	.LFB8:
 804:Generated_Source\PSoC5/cyfitter_cfg.c **** 
 805:Generated_Source\PSoC5/cyfitter_cfg.c **** 
 806:Generated_Source\PSoC5/cyfitter_cfg.c **** #define CY_AMUX_UNUSED CYREG_BOOST_SR
 807:Generated_Source\PSoC5/cyfitter_cfg.c **** /* This is an implementation detail of the AMux. Code that depends on it may be
 808:Generated_Source\PSoC5/cyfitter_cfg.c ****    incompatible with other versions of PSoC Creator. */
 809:Generated_Source\PSoC5/cyfitter_cfg.c **** uint8 CYXDATA * const CYCODE ADC_DelSig_1_AMux__addrTable[2] = {
 810:Generated_Source\PSoC5/cyfitter_cfg.c **** 	(uint8 CYXDATA *)CYREG_DSM0_SW3, 
 811:Generated_Source\PSoC5/cyfitter_cfg.c **** 	(uint8 CYXDATA *)CY_AMUX_UNUSED, 
 812:Generated_Source\PSoC5/cyfitter_cfg.c **** };
 813:Generated_Source\PSoC5/cyfitter_cfg.c **** 
 814:Generated_Source\PSoC5/cyfitter_cfg.c **** /* This is an implementation detail of the AMux. Code that depends on it may be
 815:Generated_Source\PSoC5/cyfitter_cfg.c ****    incompatible with other versions of PSoC Creator. */
 816:Generated_Source\PSoC5/cyfitter_cfg.c **** const uint8 CYCODE ADC_DelSig_1_AMux__maskTable[2] = {
 817:Generated_Source\PSoC5/cyfitter_cfg.c **** 	0x40u, 
 818:Generated_Source\PSoC5/cyfitter_cfg.c **** 	0x00u, 
 819:Generated_Source\PSoC5/cyfitter_cfg.c **** };
 820:Generated_Source\PSoC5/cyfitter_cfg.c **** 
 821:Generated_Source\PSoC5/cyfitter_cfg.c **** /*******************************************************************************
 822:Generated_Source\PSoC5/cyfitter_cfg.c **** * Function Name: ADC_DelSig_1_AMux_Set
 823:Generated_Source\PSoC5/cyfitter_cfg.c **** ********************************************************************************
 824:Generated_Source\PSoC5/cyfitter_cfg.c **** * Summary:
 825:Generated_Source\PSoC5/cyfitter_cfg.c **** *  This function is used to set a particular channel as active on the AMux.
 826:Generated_Source\PSoC5/cyfitter_cfg.c **** *
 827:Generated_Source\PSoC5/cyfitter_cfg.c **** * Parameters:  
 828:Generated_Source\PSoC5/cyfitter_cfg.c **** *   channel - The mux channel input to set as active
 829:Generated_Source\PSoC5/cyfitter_cfg.c **** *
 830:Generated_Source\PSoC5/cyfitter_cfg.c **** * Return:
 831:Generated_Source\PSoC5/cyfitter_cfg.c **** *   void
 832:Generated_Source\PSoC5/cyfitter_cfg.c **** *
 833:Generated_Source\PSoC5/cyfitter_cfg.c **** *******************************************************************************/
 834:Generated_Source\PSoC5/cyfitter_cfg.c **** void ADC_DelSig_1_AMux_Set(uint8 channel)
 835:Generated_Source\PSoC5/cyfitter_cfg.c **** {
 1264              		.loc 1 835 0
 1265              		.cfi_startproc
 1266              		@ args = 0, pretend = 0, frame = 8
 1267              		@ frame_needed = 1, uses_anonymous_args = 0
 1268              		@ link register save eliminated.
 1269 0000 80B4     		push	{r7}
ARM GAS  C:\Users\pajoh\AppData\Local\Temp\cctC92Wc.s 			page 38


 1270              		.cfi_def_cfa_offset 4
 1271              		.cfi_offset 7, -4
 1272 0002 83B0     		sub	sp, sp, #12
 1273              		.cfi_def_cfa_offset 16
 1274 0004 00AF     		add	r7, sp, #0
 1275              		.cfi_def_cfa_register 7
 1276 0006 0346     		mov	r3, r0
 1277 0008 FB71     		strb	r3, [r7, #7]
 836:Generated_Source\PSoC5/cyfitter_cfg.c **** 	if (channel < 2)
 1278              		.loc 1 836 0
 1279 000a FB79     		ldrb	r3, [r7, #7]	@ zero_extendqisi2
 1280 000c 012B     		cmp	r3, #1
 1281 000e 0ED8     		bhi	.L34
 837:Generated_Source\PSoC5/cyfitter_cfg.c **** 	{
 838:Generated_Source\PSoC5/cyfitter_cfg.c **** 		*ADC_DelSig_1_AMux__addrTable[channel] |= ADC_DelSig_1_AMux__maskTable[channel];
 1282              		.loc 1 838 0
 1283 0010 FB79     		ldrb	r3, [r7, #7]	@ zero_extendqisi2
 1284 0012 094A     		ldr	r2, .L35
 1285 0014 52F82330 		ldr	r3, [r2, r3, lsl #2]
 1286 0018 FA79     		ldrb	r2, [r7, #7]	@ zero_extendqisi2
 1287 001a 0749     		ldr	r1, .L35
 1288 001c 51F82220 		ldr	r2, [r1, r2, lsl #2]
 1289 0020 1178     		ldrb	r1, [r2]	@ zero_extendqisi2
 1290 0022 FA79     		ldrb	r2, [r7, #7]	@ zero_extendqisi2
 1291 0024 0548     		ldr	r0, .L35+4
 1292 0026 825C     		ldrb	r2, [r0, r2]	@ zero_extendqisi2
 1293 0028 0A43     		orrs	r2, r2, r1
 1294 002a D2B2     		uxtb	r2, r2
 1295 002c 1A70     		strb	r2, [r3]
 1296              	.L34:
 839:Generated_Source\PSoC5/cyfitter_cfg.c **** 	}
 840:Generated_Source\PSoC5/cyfitter_cfg.c **** }
 1297              		.loc 1 840 0
 1298 002e 00BF     		nop
 1299 0030 0C37     		adds	r7, r7, #12
 1300              		.cfi_def_cfa_offset 4
 1301 0032 BD46     		mov	sp, r7
 1302              		.cfi_def_cfa_register 13
 1303              		@ sp needed
 1304 0034 80BC     		pop	{r7}
 1305              		.cfi_restore 7
 1306              		.cfi_def_cfa_offset 0
 1307 0036 7047     		bx	lr
 1308              	.L36:
 1309              		.align	2
 1310              	.L35:
 1311 0038 00000000 		.word	ADC_DelSig_1_AMux__addrTable
 1312 003c 00000000 		.word	ADC_DelSig_1_AMux__maskTable
 1313              		.cfi_endproc
 1314              	.LFE8:
 1315              		.size	ADC_DelSig_1_AMux_Set, .-ADC_DelSig_1_AMux_Set
 1316              		.section	.text.ADC_DelSig_1_AMux_Unset,"ax",%progbits
 1317              		.align	2
 1318              		.global	ADC_DelSig_1_AMux_Unset
 1319              		.thumb
 1320              		.thumb_func
 1321              		.type	ADC_DelSig_1_AMux_Unset, %function
ARM GAS  C:\Users\pajoh\AppData\Local\Temp\cctC92Wc.s 			page 39


 1322              	ADC_DelSig_1_AMux_Unset:
 1323              	.LFB9:
 841:Generated_Source\PSoC5/cyfitter_cfg.c **** 
 842:Generated_Source\PSoC5/cyfitter_cfg.c **** /*******************************************************************************
 843:Generated_Source\PSoC5/cyfitter_cfg.c **** * Function Name: ADC_DelSig_1_AMux_Unset
 844:Generated_Source\PSoC5/cyfitter_cfg.c **** ********************************************************************************
 845:Generated_Source\PSoC5/cyfitter_cfg.c **** * Summary:
 846:Generated_Source\PSoC5/cyfitter_cfg.c **** *  This function is used to clear a particular channel from being active on the
 847:Generated_Source\PSoC5/cyfitter_cfg.c **** *  AMux.
 848:Generated_Source\PSoC5/cyfitter_cfg.c **** *
 849:Generated_Source\PSoC5/cyfitter_cfg.c **** * Parameters:  
 850:Generated_Source\PSoC5/cyfitter_cfg.c **** *   channel - The mux channel input to mark inactive
 851:Generated_Source\PSoC5/cyfitter_cfg.c **** *
 852:Generated_Source\PSoC5/cyfitter_cfg.c **** * Return:
 853:Generated_Source\PSoC5/cyfitter_cfg.c **** *   void
 854:Generated_Source\PSoC5/cyfitter_cfg.c **** *
 855:Generated_Source\PSoC5/cyfitter_cfg.c **** *******************************************************************************/
 856:Generated_Source\PSoC5/cyfitter_cfg.c **** void ADC_DelSig_1_AMux_Unset(uint8 channel)
 857:Generated_Source\PSoC5/cyfitter_cfg.c **** {
 1324              		.loc 1 857 0
 1325              		.cfi_startproc
 1326              		@ args = 0, pretend = 0, frame = 8
 1327              		@ frame_needed = 1, uses_anonymous_args = 0
 1328              		@ link register save eliminated.
 1329 0000 80B4     		push	{r7}
 1330              		.cfi_def_cfa_offset 4
 1331              		.cfi_offset 7, -4
 1332 0002 83B0     		sub	sp, sp, #12
 1333              		.cfi_def_cfa_offset 16
 1334 0004 00AF     		add	r7, sp, #0
 1335              		.cfi_def_cfa_register 7
 1336 0006 0346     		mov	r3, r0
 1337 0008 FB71     		strb	r3, [r7, #7]
 858:Generated_Source\PSoC5/cyfitter_cfg.c **** 	if (channel < 2)
 1338              		.loc 1 858 0
 1339 000a FB79     		ldrb	r3, [r7, #7]	@ zero_extendqisi2
 1340 000c 012B     		cmp	r3, #1
 1341 000e 10D8     		bhi	.L39
 859:Generated_Source\PSoC5/cyfitter_cfg.c **** 	{
 860:Generated_Source\PSoC5/cyfitter_cfg.c **** 		*ADC_DelSig_1_AMux__addrTable[channel] &= (uint8)~ADC_DelSig_1_AMux__maskTable[channel];
 1342              		.loc 1 860 0
 1343 0010 FB79     		ldrb	r3, [r7, #7]	@ zero_extendqisi2
 1344 0012 0A4A     		ldr	r2, .L40
 1345 0014 52F82330 		ldr	r3, [r2, r3, lsl #2]
 1346 0018 FA79     		ldrb	r2, [r7, #7]	@ zero_extendqisi2
 1347 001a 0849     		ldr	r1, .L40
 1348 001c 51F82220 		ldr	r2, [r1, r2, lsl #2]
 1349 0020 1178     		ldrb	r1, [r2]	@ zero_extendqisi2
 1350 0022 FA79     		ldrb	r2, [r7, #7]	@ zero_extendqisi2
 1351 0024 0648     		ldr	r0, .L40+4
 1352 0026 825C     		ldrb	r2, [r0, r2]	@ zero_extendqisi2
 1353 0028 D243     		mvns	r2, r2
 1354 002a D2B2     		uxtb	r2, r2
 1355 002c 0A40     		ands	r2, r2, r1
 1356 002e D2B2     		uxtb	r2, r2
 1357 0030 1A70     		strb	r2, [r3]
 1358              	.L39:
ARM GAS  C:\Users\pajoh\AppData\Local\Temp\cctC92Wc.s 			page 40


 861:Generated_Source\PSoC5/cyfitter_cfg.c **** 	}
 862:Generated_Source\PSoC5/cyfitter_cfg.c **** }
 1359              		.loc 1 862 0
 1360 0032 00BF     		nop
 1361 0034 0C37     		adds	r7, r7, #12
 1362              		.cfi_def_cfa_offset 4
 1363 0036 BD46     		mov	sp, r7
 1364              		.cfi_def_cfa_register 13
 1365              		@ sp needed
 1366 0038 80BC     		pop	{r7}
 1367              		.cfi_restore 7
 1368              		.cfi_def_cfa_offset 0
 1369 003a 7047     		bx	lr
 1370              	.L41:
 1371              		.align	2
 1372              	.L40:
 1373 003c 00000000 		.word	ADC_DelSig_1_AMux__addrTable
 1374 0040 00000000 		.word	ADC_DelSig_1_AMux__maskTable
 1375              		.cfi_endproc
 1376              	.LFE9:
 1377              		.size	ADC_DelSig_1_AMux_Unset, .-ADC_DelSig_1_AMux_Unset
 1378              		.section	.text.cyfitter_cfg,"ax",%progbits
 1379              		.align	2
 1380              		.global	cyfitter_cfg
 1381              		.thumb
 1382              		.thumb_func
 1383              		.type	cyfitter_cfg, %function
 1384              	cyfitter_cfg:
 1385              	.LFB10:
 863:Generated_Source\PSoC5/cyfitter_cfg.c **** 
 864:Generated_Source\PSoC5/cyfitter_cfg.c **** 
 865:Generated_Source\PSoC5/cyfitter_cfg.c **** 
 866:Generated_Source\PSoC5/cyfitter_cfg.c **** /*******************************************************************************
 867:Generated_Source\PSoC5/cyfitter_cfg.c **** * Function Name: cyfitter_cfg
 868:Generated_Source\PSoC5/cyfitter_cfg.c **** ********************************************************************************
 869:Generated_Source\PSoC5/cyfitter_cfg.c **** * Summary:
 870:Generated_Source\PSoC5/cyfitter_cfg.c **** *  This function is called by the start-up code for the selected device. It
 871:Generated_Source\PSoC5/cyfitter_cfg.c **** *  performs all of the necessary device configuration based on the design
 872:Generated_Source\PSoC5/cyfitter_cfg.c **** *  settings.  This includes settings from the Design Wide Resources (DWR) such
 873:Generated_Source\PSoC5/cyfitter_cfg.c **** *  as Clocks and Pins as well as any component configuration that is necessary.
 874:Generated_Source\PSoC5/cyfitter_cfg.c **** *
 875:Generated_Source\PSoC5/cyfitter_cfg.c **** * Parameters:
 876:Generated_Source\PSoC5/cyfitter_cfg.c **** *   void
 877:Generated_Source\PSoC5/cyfitter_cfg.c **** *
 878:Generated_Source\PSoC5/cyfitter_cfg.c **** * Return:
 879:Generated_Source\PSoC5/cyfitter_cfg.c **** *   void
 880:Generated_Source\PSoC5/cyfitter_cfg.c **** *
 881:Generated_Source\PSoC5/cyfitter_cfg.c **** *******************************************************************************/
 882:Generated_Source\PSoC5/cyfitter_cfg.c **** 
 883:Generated_Source\PSoC5/cyfitter_cfg.c **** void cyfitter_cfg(void)
 884:Generated_Source\PSoC5/cyfitter_cfg.c **** {
 1386              		.loc 1 884 0
 1387              		.cfi_startproc
 1388              		@ args = 0, pretend = 0, frame = 0
 1389              		@ frame_needed = 1, uses_anonymous_args = 0
 1390 0000 80B5     		push	{r7, lr}
 1391              		.cfi_def_cfa_offset 8
ARM GAS  C:\Users\pajoh\AppData\Local\Temp\cctC92Wc.s 			page 41


 1392              		.cfi_offset 7, -8
 1393              		.cfi_offset 14, -4
 1394 0002 00AF     		add	r7, sp, #0
 1395              		.cfi_def_cfa_register 7
 885:Generated_Source\PSoC5/cyfitter_cfg.c **** #ifdef CYGlobalIntDisable
 886:Generated_Source\PSoC5/cyfitter_cfg.c **** 	/* Disable interrupts by default. Let user enable if/when they want. */
 887:Generated_Source\PSoC5/cyfitter_cfg.c **** 	CYGlobalIntDisable
 1396              		.loc 1 887 0
 1397              		.syntax unified
 1398              	@ 887 "Generated_Source\PSoC5\cyfitter_cfg.c" 1
 1399 0004 72B6     		CPSID   i
 1400              	@ 0 "" 2
 888:Generated_Source\PSoC5/cyfitter_cfg.c **** #endif
 889:Generated_Source\PSoC5/cyfitter_cfg.c **** 
 890:Generated_Source\PSoC5/cyfitter_cfg.c **** 
 891:Generated_Source\PSoC5/cyfitter_cfg.c **** 	/* Set Flash Cycles based on max possible frequency in case a glitch occurs during ClockSetup(). *
 892:Generated_Source\PSoC5/cyfitter_cfg.c **** 	CY_SET_XTND_REG8((void CYFAR *)(CYREG_CACHE_CC_CTL), (((CYDEV_INSTRUCT_CACHE_ENABLED) != 0) ? 0x61
 1401              		.loc 1 892 0
 1402              		.thumb
 1403              		.syntax unified
 1404 0006 314B     		ldr	r3, .L43
 1405 0008 6122     		movs	r2, #97
 1406 000a 1A70     		strb	r2, [r3]
 893:Generated_Source\PSoC5/cyfitter_cfg.c **** 	/* Setup clocks based on selections from Clock DWR */
 894:Generated_Source\PSoC5/cyfitter_cfg.c **** 	ClockSetup();
 1407              		.loc 1 894 0
 1408 000c FFF7FEFF 		bl	ClockSetup
 895:Generated_Source\PSoC5/cyfitter_cfg.c **** 	/* Set Flash Cycles based on newly configured 48.00MHz Bus Clock. */
 896:Generated_Source\PSoC5/cyfitter_cfg.c **** 	CY_SET_XTND_REG8((void CYFAR *)(CYREG_CACHE_CC_CTL), (((CYDEV_INSTRUCT_CACHE_ENABLED) != 0) ? 0xC1
 1409              		.loc 1 896 0
 1410 0010 2E4B     		ldr	r3, .L43
 1411 0012 C122     		movs	r2, #193
 1412 0014 1A70     		strb	r2, [r3]
 897:Generated_Source\PSoC5/cyfitter_cfg.c **** 	/* Enable/Disable Debug functionality based on settings from System DWR */
 898:Generated_Source\PSoC5/cyfitter_cfg.c **** 	CY_SET_XTND_REG8((void CYFAR *)CYREG_MLOGIC_DEBUG, (CY_GET_XTND_REG8((void CYFAR *)CYREG_MLOGIC_DE
 1413              		.loc 1 898 0
 1414 0016 2E4A     		ldr	r2, .L43+4
 1415 0018 2D4B     		ldr	r3, .L43+4
 1416 001a 1B78     		ldrb	r3, [r3]
 1417 001c DBB2     		uxtb	r3, r3
 1418 001e 43F00403 		orr	r3, r3, #4
 1419 0022 DBB2     		uxtb	r3, r3
 1420 0024 1370     		strb	r3, [r2]
 899:Generated_Source\PSoC5/cyfitter_cfg.c **** 
 900:Generated_Source\PSoC5/cyfitter_cfg.c **** 	{
 901:Generated_Source\PSoC5/cyfitter_cfg.c **** 		cfg_dma_init();
 1421              		.loc 1 901 0
 1422 0026 FFF7FEFF 		bl	cfg_dma_init
 902:Generated_Source\PSoC5/cyfitter_cfg.c **** 
 903:Generated_Source\PSoC5/cyfitter_cfg.c **** 		/* Perform normal device configuration. Order is not critical for these items. */
 904:Generated_Source\PSoC5/cyfitter_cfg.c **** 		CY_SET_XTND_REG8((void CYFAR *)(CYREG_DSM0_CR3), 0x0Au);
 1423              		.loc 1 904 0
 1424 002a 2A4B     		ldr	r3, .L43+8
 1425 002c 0A22     		movs	r2, #10
 1426 002e 1A70     		strb	r2, [r3]
 905:Generated_Source\PSoC5/cyfitter_cfg.c **** 
 906:Generated_Source\PSoC5/cyfitter_cfg.c **** 		/* Enable digital routing */
ARM GAS  C:\Users\pajoh\AppData\Local\Temp\cctC92Wc.s 			page 42


 907:Generated_Source\PSoC5/cyfitter_cfg.c **** 		CY_SET_XTND_REG8((void CYFAR *)CYREG_BCTL0_BANK_CTL, CY_GET_XTND_REG8((void CYFAR *)CYREG_BCTL0_B
 1427              		.loc 1 907 0
 1428 0030 294A     		ldr	r2, .L43+12
 1429 0032 294B     		ldr	r3, .L43+12
 1430 0034 1B78     		ldrb	r3, [r3]
 1431 0036 DBB2     		uxtb	r3, r3
 1432 0038 43F00203 		orr	r3, r3, #2
 1433 003c DBB2     		uxtb	r3, r3
 1434 003e 1370     		strb	r3, [r2]
 908:Generated_Source\PSoC5/cyfitter_cfg.c **** 		CY_SET_XTND_REG8((void CYFAR *)CYREG_BCTL1_BANK_CTL, CY_GET_XTND_REG8((void CYFAR *)CYREG_BCTL1_B
 1435              		.loc 1 908 0
 1436 0040 264A     		ldr	r2, .L43+16
 1437 0042 264B     		ldr	r3, .L43+16
 1438 0044 1B78     		ldrb	r3, [r3]
 1439 0046 DBB2     		uxtb	r3, r3
 1440 0048 43F00203 		orr	r3, r3, #2
 1441 004c DBB2     		uxtb	r3, r3
 1442 004e 1370     		strb	r3, [r2]
 909:Generated_Source\PSoC5/cyfitter_cfg.c **** 
 910:Generated_Source\PSoC5/cyfitter_cfg.c **** 		/* Enable UDB array */
 911:Generated_Source\PSoC5/cyfitter_cfg.c **** 		CY_SET_XTND_REG8((void CYFAR *)CYREG_PM_ACT_CFG0, CY_GET_XTND_REG8((void CYFAR *)CYREG_PM_ACT_CFG
 1443              		.loc 1 911 0
 1444 0050 234A     		ldr	r2, .L43+20
 1445 0052 234B     		ldr	r3, .L43+20
 1446 0054 1B78     		ldrb	r3, [r3]
 1447 0056 DBB2     		uxtb	r3, r3
 1448 0058 43F04003 		orr	r3, r3, #64
 1449 005c DBB2     		uxtb	r3, r3
 1450 005e 1370     		strb	r3, [r2]
 912:Generated_Source\PSoC5/cyfitter_cfg.c **** 		CY_SET_XTND_REG8((void CYFAR *)CYREG_PM_AVAIL_CR2, CY_GET_XTND_REG8((void CYFAR *)CYREG_PM_AVAIL_
 1451              		.loc 1 912 0
 1452 0060 204A     		ldr	r2, .L43+24
 1453 0062 204B     		ldr	r3, .L43+24
 1454 0064 1B78     		ldrb	r3, [r3]
 1455 0066 DBB2     		uxtb	r3, r3
 1456 0068 43F01003 		orr	r3, r3, #16
 1457 006c DBB2     		uxtb	r3, r3
 1458 006e 1370     		strb	r3, [r2]
 913:Generated_Source\PSoC5/cyfitter_cfg.c **** 	}
 914:Generated_Source\PSoC5/cyfitter_cfg.c **** 
 915:Generated_Source\PSoC5/cyfitter_cfg.c **** 
 916:Generated_Source\PSoC5/cyfitter_cfg.c **** 	/* Perform second pass device configuration. These items must be configured in specific order afte
 917:Generated_Source\PSoC5/cyfitter_cfg.c **** 	CYCONFIGCPY((void CYFAR *)(CYREG_PRT0_DM0), (const void CYFAR *)(BS_IOPINS0_0_VAL), 8u);
 1459              		.loc 1 917 0
 1460 0070 0822     		movs	r2, #8
 1461 0072 1D49     		ldr	r1, .L43+28
 1462 0074 1D48     		ldr	r0, .L43+32
 1463 0076 FFF7FEFF 		bl	CYCONFIGCPY
 918:Generated_Source\PSoC5/cyfitter_cfg.c **** 	CYCONFIGCPY((void CYFAR *)(CYREG_PRT12_DR), (const void CYFAR *)(BS_IOPINS0_7_VAL), 10u);
 1464              		.loc 1 918 0
 1465 007a 0A22     		movs	r2, #10
 1466 007c 1C49     		ldr	r1, .L43+36
 1467 007e 1D48     		ldr	r0, .L43+40
 1468 0080 FFF7FEFF 		bl	CYCONFIGCPY
 919:Generated_Source\PSoC5/cyfitter_cfg.c **** 	CYCONFIGCPY((void CYFAR *)(CYREG_PRT1_DM0), (const void CYFAR *)(BS_IOPINS0_1_VAL), 8u);
 1469              		.loc 1 919 0
 1470 0084 0822     		movs	r2, #8
ARM GAS  C:\Users\pajoh\AppData\Local\Temp\cctC92Wc.s 			page 43


 1471 0086 1C49     		ldr	r1, .L43+44
 1472 0088 1C48     		ldr	r0, .L43+48
 1473 008a FFF7FEFF 		bl	CYCONFIGCPY
 920:Generated_Source\PSoC5/cyfitter_cfg.c **** 	CYCONFIGCPY((void CYFAR *)(CYREG_PRT2_DR), (const void CYFAR *)(BS_IOPINS0_2_VAL), 10u);
 1474              		.loc 1 920 0
 1475 008e 0A22     		movs	r2, #10
 1476 0090 1B49     		ldr	r1, .L43+52
 1477 0092 1C48     		ldr	r0, .L43+56
 1478 0094 FFF7FEFF 		bl	CYCONFIGCPY
 921:Generated_Source\PSoC5/cyfitter_cfg.c **** 	CYCONFIGCPY((void CYFAR *)(CYREG_PRT3_DM0), (const void CYFAR *)(BS_IOPINS0_3_VAL), 8u);
 1479              		.loc 1 921 0
 1480 0098 0822     		movs	r2, #8
 1481 009a 1B49     		ldr	r1, .L43+60
 1482 009c 1B48     		ldr	r0, .L43+64
 1483 009e FFF7FEFF 		bl	CYCONFIGCPY
 922:Generated_Source\PSoC5/cyfitter_cfg.c **** 	/* Switch Boost to the precision bandgap reference from its internal reference */
 923:Generated_Source\PSoC5/cyfitter_cfg.c **** 	CY_SET_REG8((void CYXDATA *)CYREG_BOOST_CR2, (CY_GET_REG8((void CYXDATA *)CYREG_BOOST_CR2) | 0x08u
 1484              		.loc 1 923 0
 1485 00a2 1B4A     		ldr	r2, .L43+68
 1486 00a4 1A4B     		ldr	r3, .L43+68
 1487 00a6 1B78     		ldrb	r3, [r3]
 1488 00a8 DBB2     		uxtb	r3, r3
 1489 00aa 43F00803 		orr	r3, r3, #8
 1490 00ae DBB2     		uxtb	r3, r3
 1491 00b0 1370     		strb	r3, [r2]
 924:Generated_Source\PSoC5/cyfitter_cfg.c **** 	CY_SET_XTND_REG8((void CYFAR *)(CYREG_PANTHER_WAITPIPE), 0x01u);
 1492              		.loc 1 924 0
 1493 00b2 184B     		ldr	r3, .L43+72
 1494 00b4 0122     		movs	r2, #1
 1495 00b6 1A70     		strb	r2, [r3]
 925:Generated_Source\PSoC5/cyfitter_cfg.c **** 
 926:Generated_Source\PSoC5/cyfitter_cfg.c **** 	/* Perform basic analog initialization to defaults */
 927:Generated_Source\PSoC5/cyfitter_cfg.c **** 	AnalogSetDefault();
 1496              		.loc 1 927 0
 1497 00b8 FFF7FEFF 		bl	AnalogSetDefault
 928:Generated_Source\PSoC5/cyfitter_cfg.c **** 
 929:Generated_Source\PSoC5/cyfitter_cfg.c **** 	/* Configure alternate active mode */
 930:Generated_Source\PSoC5/cyfitter_cfg.c **** 	CYCONFIGCPY((void CYFAR *)CYDEV_PM_STBY_BASE, (const void CYFAR *)CYDEV_PM_ACT_BASE, 14u);
 1498              		.loc 1 930 0
 1499 00bc 0E22     		movs	r2, #14
 1500 00be 0849     		ldr	r1, .L43+20
 1501 00c0 1548     		ldr	r0, .L43+76
 1502 00c2 FFF7FEFF 		bl	CYCONFIGCPY
 931:Generated_Source\PSoC5/cyfitter_cfg.c **** }
 1503              		.loc 1 931 0
 1504 00c6 00BF     		nop
 1505 00c8 80BD     		pop	{r7, pc}
 1506              	.L44:
 1507 00ca 00BF     		.align	2
 1508              	.L43:
 1509 00cc 00480040 		.word	1073760256
 1510 00d0 E8460040 		.word	1073759976
 1511 00d4 83580040 		.word	1073764483
 1512 00d8 03500140 		.word	1073827843
 1513 00dc 13500140 		.word	1073827859
 1514 00e0 A0430040 		.word	1073759136
 1515 00e4 C2430040 		.word	1073759170
ARM GAS  C:\Users\pajoh\AppData\Local\Temp\cctC92Wc.s 			page 44


 1516 00e8 8C1C0048 		.word	1207966860
 1517 00ec 02510040 		.word	1073762562
 1518 00f0 941C0048 		.word	1207966868
 1519 00f4 C0510040 		.word	1073762752
 1520 00f8 A01C0048 		.word	1207966880
 1521 00fc 12510040 		.word	1073762578
 1522 0100 A81C0048 		.word	1207966888
 1523 0104 20510040 		.word	1073762592
 1524 0108 B41C0048 		.word	1207966900
 1525 010c 32510040 		.word	1073762610
 1526 0110 22430040 		.word	1073759010
 1527 0114 04000840 		.word	1074266116
 1528 0118 B0430040 		.word	1073759152
 1529              		.cfi_endproc
 1530              	.LFE10:
 1531              		.size	cyfitter_cfg, .-cyfitter_cfg
 1532              		.bss
 1533              		.align	3
 1534              	DMA_ZERO_VAL.4977:
 1535 0000 00000000 		.space	4
 1536              		.section	.rodata
 1537 000a 0000     		.align	2
 1538              		.type	CFG_TD_ADDR0.4979, %object
 1539              		.size	CFG_TD_ADDR0.4979, 328
 1540              	CFG_TD_ADDR0.4979:
 1541 000c 00000000 		.word	CH1_ADDR_DATA0.4972
 1542 0010 08000000 		.word	CH2_ADDR_DATA0.4973
 1543 0014 10000000 		.word	CH5_ADDR_DATA0.4974
 1544 0018 18000000 		.word	CH6_ADDR_DATA0.4975
 1545 001c 20000000 		.word	DMA_TD_START_CMD.4976
 1546 0020 20000000 		.word	DMA_TD_START_CMD.4976
 1547 0024 20000000 		.word	DMA_TD_START_CMD.4976
 1548 0028 20000000 		.word	DMA_TD_START_CMD.4976
 1549 002c 00000000 		.word	DMA_ZERO_VAL.4977
 1550 0030 00000000 		.word	DMA_ZERO_VAL.4977
 1551 0034 00000000 		.word	DMA_ZERO_VAL.4977
 1552 0038 00000000 		.word	DMA_ZERO_VAL.4977
 1553 003c 00000000 		.word	DMA_ZERO_VAL.4977
 1554 0040 00000000 		.word	DMA_ZERO_VAL.4977
 1555 0044 00000000 		.word	DMA_ZERO_VAL.4977
 1556 0048 00000000 		.word	DMA_ZERO_VAL.4977
 1557 004c 00000000 		.word	DMA_ZERO_VAL.4977
 1558 0050 00000048 		.word	1207959552
 1559 0054 08000048 		.word	1207959560
 1560 0058 10000048 		.word	1207959568
 1561 005c 20000048 		.word	1207959584
 1562 0060 2C080048 		.word	1207961644
 1563 0064 4C080048 		.word	1207961676
 1564 0068 18000048 		.word	1207959576
 1565 006c 2C000048 		.word	1207959596
 1566 0070 AC000048 		.word	1207959724
 1567 0074 2C010048 		.word	1207959852
 1568 0078 AC010048 		.word	1207959980
 1569 007c 2C020048 		.word	1207960108
 1570 0080 AC020048 		.word	1207960236
 1571 0084 2C030048 		.word	1207960364
 1572 0088 AC030048 		.word	1207960492
ARM GAS  C:\Users\pajoh\AppData\Local\Temp\cctC92Wc.s 			page 45


 1573 008c 2C040048 		.word	1207960620
 1574 0090 AC040048 		.word	1207960748
 1575 0094 2C050048 		.word	1207960876
 1576 0098 AC050048 		.word	1207961004
 1577 009c 2C060048 		.word	1207961132
 1578 00a0 AC060048 		.word	1207961260
 1579 00a4 2C070048 		.word	1207961388
 1580 00a8 AC070048 		.word	1207961516
 1581 00ac 6C080048 		.word	1207961708
 1582 00b0 7C080048 		.word	1207961724
 1583 00b4 8C080048 		.word	1207961740
 1584 00b8 0C090048 		.word	1207961868
 1585 00bc 8C090048 		.word	1207961996
 1586 00c0 0C0A0048 		.word	1207962124
 1587 00c4 8C0A0048 		.word	1207962252
 1588 00c8 0C0B0048 		.word	1207962380
 1589 00cc 8C0B0048 		.word	1207962508
 1590 00d0 0C0C0048 		.word	1207962636
 1591 00d4 8C0C0048 		.word	1207962764
 1592 00d8 0C0D0048 		.word	1207962892
 1593 00dc 8C0D0048 		.word	1207963020
 1594 00e0 0C0E0048 		.word	1207963148
 1595 00e4 8C0E0048 		.word	1207963276
 1596 00e8 0C0F0048 		.word	1207963404
 1597 00ec 8C0F0048 		.word	1207963532
 1598 00f0 0C100048 		.word	1207963660
 1599 00f4 8C100048 		.word	1207963788
 1600 00f8 0C110048 		.word	1207963916
 1601 00fc 8C110048 		.word	1207964044
 1602 0100 0C120048 		.word	1207964172
 1603 0104 8C120048 		.word	1207964300
 1604 0108 0C130048 		.word	1207964428
 1605 010c 8C130048 		.word	1207964556
 1606 0110 0C140048 		.word	1207964684
 1607 0114 8C140048 		.word	1207964812
 1608 0118 0C150048 		.word	1207964940
 1609 011c 8C150048 		.word	1207965068
 1610 0120 0C160048 		.word	1207965196
 1611 0124 8C160048 		.word	1207965324
 1612 0128 0C170048 		.word	1207965452
 1613 012c 8C170048 		.word	1207965580
 1614 0130 0C180048 		.word	1207965708
 1615 0134 8C180048 		.word	1207965836
 1616 0138 0C190048 		.word	1207965964
 1617 013c 8C190048 		.word	1207966092
 1618 0140 0C1A0048 		.word	1207966220
 1619 0144 8C1A0048 		.word	1207966348
 1620 0148 0C1B0048 		.word	1207966476
 1621 014c 8C1B0048 		.word	1207966604
 1622 0150 0C1C0048 		.word	1207966732
 1623              		.text
 1624              	.Letext0:
 1625              		.file 2 "c:\\program files (x86)\\cypress\\psoc creator\\4.2\\psoc creator\\import\\gnu\\arm\\5.4.
 1626              		.file 3 "Generated_Source\\PSoC5\\cytypes.h"