ARM GAS  C:\Users\pajoh\AppData\Local\Temp\cc681OFN.s 			page 1


   1              		.syntax unified
   2              		.cpu cortex-m3
   3              		.fpu softvfp
   4              		.eabi_attribute 20, 1
   5              		.eabi_attribute 21, 1
   6              		.eabi_attribute 23, 3
   7              		.eabi_attribute 24, 1
   8              		.eabi_attribute 25, 1
   9              		.eabi_attribute 26, 1
  10              		.eabi_attribute 30, 6
  11              		.eabi_attribute 34, 1
  12              		.eabi_attribute 18, 4
  13              		.thumb
  14              		.syntax unified
  15              		.file	"lis3dh.c"
  16              		.text
  17              	.Ltext0:
  18              		.cfi_sections	.debug_frame
  19              		.section	.text.writeRegister8,"ax",%progbits
  20              		.align	2
  21              		.global	writeRegister8
  22              		.thumb
  23              		.thumb_func
  24              		.type	writeRegister8, %function
  25              	writeRegister8:
  26              	.LFB0:
  27              		.file 1 "lis3dh.c"
   1:lis3dh.c      **** /* ========================================
   2:lis3dh.c      ****  * Helper functions for LIS3DH I2C accelerometer
   3:lis3dh.c      ****  * ========================================
   4:lis3dh.c      **** */
   5:lis3dh.c      **** 
   6:lis3dh.c      **** #include "lis3dh.h"
   7:lis3dh.c      **** 
   8:lis3dh.c      **** void writeRegister8(uint8 reg, uint8 val){
  28              		.loc 1 8 0
  29              		.cfi_startproc
  30              		@ args = 0, pretend = 0, frame = 8
  31              		@ frame_needed = 1, uses_anonymous_args = 0
  32 0000 80B5     		push	{r7, lr}
  33              		.cfi_def_cfa_offset 8
  34              		.cfi_offset 7, -8
  35              		.cfi_offset 14, -4
  36 0002 82B0     		sub	sp, sp, #8
  37              		.cfi_def_cfa_offset 16
  38 0004 00AF     		add	r7, sp, #0
  39              		.cfi_def_cfa_register 7
  40 0006 0346     		mov	r3, r0
  41 0008 0A46     		mov	r2, r1
  42 000a FB71     		strb	r3, [r7, #7]
  43 000c 1346     		mov	r3, r2
  44 000e BB71     		strb	r3, [r7, #6]
   9:lis3dh.c      ****     //this function writes "val" to register "reg"
  10:lis3dh.c      ****     
  11:lis3dh.c      ****     I2C_1_MasterSendStart(LIS3DH_ADDRESS,I2C_1_WRITE_XFER_MODE);
  45              		.loc 1 11 0
  46 0010 0021     		movs	r1, #0
ARM GAS  C:\Users\pajoh\AppData\Local\Temp\cc681OFN.s 			page 2


  47 0012 1820     		movs	r0, #24
  48 0014 FFF7FEFF 		bl	I2C_1_MasterSendStart
  12:lis3dh.c      ****     I2C_1_MasterWriteByte(reg);
  49              		.loc 1 12 0
  50 0018 FB79     		ldrb	r3, [r7, #7]	@ zero_extendqisi2
  51 001a 1846     		mov	r0, r3
  52 001c FFF7FEFF 		bl	I2C_1_MasterWriteByte
  13:lis3dh.c      ****     I2C_1_MasterWriteByte(val);
  53              		.loc 1 13 0
  54 0020 BB79     		ldrb	r3, [r7, #6]	@ zero_extendqisi2
  55 0022 1846     		mov	r0, r3
  56 0024 FFF7FEFF 		bl	I2C_1_MasterWriteByte
  14:lis3dh.c      ****     I2C_1_MasterSendStop();
  57              		.loc 1 14 0
  58 0028 FFF7FEFF 		bl	I2C_1_MasterSendStop
  15:lis3dh.c      **** }
  59              		.loc 1 15 0
  60 002c 00BF     		nop
  61 002e 0837     		adds	r7, r7, #8
  62              		.cfi_def_cfa_offset 8
  63 0030 BD46     		mov	sp, r7
  64              		.cfi_def_cfa_register 13
  65              		@ sp needed
  66 0032 80BD     		pop	{r7, pc}
  67              		.cfi_endproc
  68              	.LFE0:
  69              		.size	writeRegister8, .-writeRegister8
  70              		.section	.text.readRegister8,"ax",%progbits
  71              		.align	2
  72              		.global	readRegister8
  73              		.thumb
  74              		.thumb_func
  75              		.type	readRegister8, %function
  76              	readRegister8:
  77              	.LFB1:
  16:lis3dh.c      **** 
  17:lis3dh.c      **** uint8 readRegister8(uint8 reg){
  78              		.loc 1 17 0
  79              		.cfi_startproc
  80              		@ args = 0, pretend = 0, frame = 16
  81              		@ frame_needed = 1, uses_anonymous_args = 0
  82 0000 80B5     		push	{r7, lr}
  83              		.cfi_def_cfa_offset 8
  84              		.cfi_offset 7, -8
  85              		.cfi_offset 14, -4
  86 0002 84B0     		sub	sp, sp, #16
  87              		.cfi_def_cfa_offset 24
  88 0004 00AF     		add	r7, sp, #0
  89              		.cfi_def_cfa_register 7
  90 0006 0346     		mov	r3, r0
  91 0008 FB71     		strb	r3, [r7, #7]
  18:lis3dh.c      ****     //Do an I2C transaction, writing the desired register address and 
  19:lis3dh.c      ****     //another transaction to read the data at that address
  20:lis3dh.c      ****     uint8 read;
  21:lis3dh.c      ****     I2C_1_MasterSendStart(LIS3DH_ADDRESS,I2C_1_WRITE_XFER_MODE);
  92              		.loc 1 21 0
  93 000a 0021     		movs	r1, #0
ARM GAS  C:\Users\pajoh\AppData\Local\Temp\cc681OFN.s 			page 3


  94 000c 1820     		movs	r0, #24
  95 000e FFF7FEFF 		bl	I2C_1_MasterSendStart
  22:lis3dh.c      ****     I2C_1_MasterWriteByte(reg);
  96              		.loc 1 22 0
  97 0012 FB79     		ldrb	r3, [r7, #7]	@ zero_extendqisi2
  98 0014 1846     		mov	r0, r3
  99 0016 FFF7FEFF 		bl	I2C_1_MasterWriteByte
  23:lis3dh.c      ****     I2C_1_MasterSendStop();
 100              		.loc 1 23 0
 101 001a FFF7FEFF 		bl	I2C_1_MasterSendStop
  24:lis3dh.c      ****     
  25:lis3dh.c      ****     I2C_1_MasterSendStart(LIS3DH_ADDRESS,I2C_1_READ_XFER_MODE);
 102              		.loc 1 25 0
 103 001e 0121     		movs	r1, #1
 104 0020 1820     		movs	r0, #24
 105 0022 FFF7FEFF 		bl	I2C_1_MasterSendStart
  26:lis3dh.c      ****     read = I2C_1_MasterReadByte(I2C_1_NAK_DATA);
 106              		.loc 1 26 0
 107 0026 0020     		movs	r0, #0
 108 0028 FFF7FEFF 		bl	I2C_1_MasterReadByte
 109 002c 0346     		mov	r3, r0
 110 002e FB73     		strb	r3, [r7, #15]
  27:lis3dh.c      ****     I2C_1_MasterSendStop();
 111              		.loc 1 27 0
 112 0030 FFF7FEFF 		bl	I2C_1_MasterSendStop
  28:lis3dh.c      ****     return read;
 113              		.loc 1 28 0
 114 0034 FB7B     		ldrb	r3, [r7, #15]	@ zero_extendqisi2
  29:lis3dh.c      **** }
 115              		.loc 1 29 0
 116 0036 1846     		mov	r0, r3
 117 0038 1037     		adds	r7, r7, #16
 118              		.cfi_def_cfa_offset 8
 119 003a BD46     		mov	sp, r7
 120              		.cfi_def_cfa_register 13
 121              		@ sp needed
 122 003c 80BD     		pop	{r7, pc}
 123              		.cfi_endproc
 124              	.LFE1:
 125              		.size	readRegister8, .-readRegister8
 126 003e 00BF     		.section	.text.accel_update,"ax",%progbits
 127              		.align	2
 128              		.global	accel_update
 129              		.thumb
 130              		.thumb_func
 131              		.type	accel_update, %function
 132              	accel_update:
 133              	.LFB2:
  30:lis3dh.c      **** 
  31:lis3dh.c      **** void accel_update(struct Accel * acc_struct){
 134              		.loc 1 31 0
 135              		.cfi_startproc
 136              		@ args = 0, pretend = 0, frame = 8
 137              		@ frame_needed = 1, uses_anonymous_args = 0
 138 0000 80B5     		push	{r7, lr}
 139              		.cfi_def_cfa_offset 8
 140              		.cfi_offset 7, -8
ARM GAS  C:\Users\pajoh\AppData\Local\Temp\cc681OFN.s 			page 4


 141              		.cfi_offset 14, -4
 142 0002 82B0     		sub	sp, sp, #8
 143              		.cfi_def_cfa_offset 16
 144 0004 00AF     		add	r7, sp, #0
 145              		.cfi_def_cfa_register 7
 146 0006 7860     		str	r0, [r7, #4]
  32:lis3dh.c      ****     //read all three axes of the accelerometer
  33:lis3dh.c      ****     
  34:lis3dh.c      ****     acc_struct->accel_x = readRegister8(0x28);
 147              		.loc 1 34 0
 148 0008 2820     		movs	r0, #40
 149 000a FFF7FEFF 		bl	readRegister8
 150 000e 0346     		mov	r3, r0
 151 0010 1AB2     		sxth	r2, r3
 152 0012 7B68     		ldr	r3, [r7, #4]
 153 0014 1A80     		strh	r2, [r3]	@ movhi
  35:lis3dh.c      ****     acc_struct->accel_x |= (readRegister8(0x29) << 8);
 154              		.loc 1 35 0
 155 0016 2920     		movs	r0, #41
 156 0018 FFF7FEFF 		bl	readRegister8
 157 001c 0346     		mov	r3, r0
 158 001e 1902     		lsls	r1, r3, #8
 159 0020 7B68     		ldr	r3, [r7, #4]
 160 0022 B3F90020 		ldrsh	r2, [r3]
 161 0026 0BB2     		sxth	r3, r1
 162 0028 1343     		orrs	r3, r3, r2
 163 002a 1AB2     		sxth	r2, r3
 164 002c 7B68     		ldr	r3, [r7, #4]
 165 002e 1A80     		strh	r2, [r3]	@ movhi
  36:lis3dh.c      ****     acc_struct->accel_y = readRegister8(0x2A);
 166              		.loc 1 36 0
 167 0030 2A20     		movs	r0, #42
 168 0032 FFF7FEFF 		bl	readRegister8
 169 0036 0346     		mov	r3, r0
 170 0038 1AB2     		sxth	r2, r3
 171 003a 7B68     		ldr	r3, [r7, #4]
 172 003c 5A80     		strh	r2, [r3, #2]	@ movhi
  37:lis3dh.c      ****     acc_struct->accel_y |= (readRegister8(0x2B) << 8);
 173              		.loc 1 37 0
 174 003e 2B20     		movs	r0, #43
 175 0040 FFF7FEFF 		bl	readRegister8
 176 0044 0346     		mov	r3, r0
 177 0046 1902     		lsls	r1, r3, #8
 178 0048 7B68     		ldr	r3, [r7, #4]
 179 004a B3F90220 		ldrsh	r2, [r3, #2]
 180 004e 0BB2     		sxth	r3, r1
 181 0050 1343     		orrs	r3, r3, r2
 182 0052 1AB2     		sxth	r2, r3
 183 0054 7B68     		ldr	r3, [r7, #4]
 184 0056 5A80     		strh	r2, [r3, #2]	@ movhi
  38:lis3dh.c      ****     acc_struct->accel_z = readRegister8(0x2C);
 185              		.loc 1 38 0
 186 0058 2C20     		movs	r0, #44
 187 005a FFF7FEFF 		bl	readRegister8
 188 005e 0346     		mov	r3, r0
 189 0060 1AB2     		sxth	r2, r3
 190 0062 7B68     		ldr	r3, [r7, #4]
ARM GAS  C:\Users\pajoh\AppData\Local\Temp\cc681OFN.s 			page 5


 191 0064 9A80     		strh	r2, [r3, #4]	@ movhi
  39:lis3dh.c      ****     acc_struct->accel_z |= (readRegister8(0x2D) << 8);  
 192              		.loc 1 39 0
 193 0066 2D20     		movs	r0, #45
 194 0068 FFF7FEFF 		bl	readRegister8
 195 006c 0346     		mov	r3, r0
 196 006e 1902     		lsls	r1, r3, #8
 197 0070 7B68     		ldr	r3, [r7, #4]
 198 0072 B3F90420 		ldrsh	r2, [r3, #4]
 199 0076 0BB2     		sxth	r3, r1
 200 0078 1343     		orrs	r3, r3, r2
 201 007a 1AB2     		sxth	r2, r3
 202 007c 7B68     		ldr	r3, [r7, #4]
 203 007e 9A80     		strh	r2, [r3, #4]	@ movhi
  40:lis3dh.c      ****     return;
 204              		.loc 1 40 0
 205 0080 00BF     		nop
  41:lis3dh.c      **** }
 206              		.loc 1 41 0
 207 0082 0837     		adds	r7, r7, #8
 208              		.cfi_def_cfa_offset 8
 209 0084 BD46     		mov	sp, r7
 210              		.cfi_def_cfa_register 13
 211              		@ sp needed
 212 0086 80BD     		pop	{r7, pc}
 213              		.cfi_endproc
 214              	.LFE2:
 215              		.size	accel_update, .-accel_update
 216              		.text
 217              	.Letext0:
 218              		.file 2 "Generated_Source\\PSoC5/cytypes.h"
 219              		.file 3 "lis3dh.h"