ARM GAS  C:\Users\pajoh\AppData\Local\Temp\cc4PzEGZ.s 			page 1


   1              		.syntax unified
   2              		.cpu cortex-m3
   3              		.fpu softvfp
   4              		.eabi_attribute 20, 1
   5              		.eabi_attribute 21, 1
   6              		.eabi_attribute 23, 3
   7              		.eabi_attribute 24, 1
   8              		.eabi_attribute 25, 1
   9              		.eabi_attribute 26, 1
  10              		.eabi_attribute 30, 6
  11              		.eabi_attribute 34, 1
  12              		.eabi_attribute 18, 4
  13              		.thumb
  14              		.syntax unified
  15              		.file	"main.c"
  16              		.text
  17              	.Ltext0:
  18              		.cfi_sections	.debug_frame
  19              		.comm	ACC_Read_buffer,10,4
  20              		.comm	ACC_Write_buffer,8,4
  21              		.global	read_angle_command
  22              		.data
  23              		.align	1
  24              		.type	read_angle_command, %object
  25              		.size	read_angle_command, 2
  26              	read_angle_command:
  27 0000 FF7F     		.short	32767
  28              		.comm	angle,4,4
  29              		.comm	angle_electric,4,4
  30              		.comm	angle_diff,4,4
  31              		.global	torque_command
  32              		.bss
  33              		.align	2
  34              		.type	torque_command, %object
  35              		.size	torque_command, 4
  36              	torque_command:
  37 0000 00000000 		.space	4
  38              		.comm	angle_old,4,4
  39              		.comm	angle_sum,4,4
  40              		.comm	transmit_buff,80,4
  41              		.comm	controller_tick,1,1
  42              		.global	axis_position_filtered
  43              		.align	2
  44              		.type	axis_position_filtered, %object
  45              		.size	axis_position_filtered, 4
  46              	axis_position_filtered:
  47 0004 00000000 		.space	4
  48              		.global	axis_position_filtered_2
  49              		.align	2
  50              		.type	axis_position_filtered_2, %object
  51              		.size	axis_position_filtered_2, 4
  52              	axis_position_filtered_2:
  53 0008 00000000 		.space	4
  54              		.comm	position,2,2
  55              		.global	position_ref
  56              		.align	2
  57              		.type	position_ref, %object
ARM GAS  C:\Users\pajoh\AppData\Local\Temp\cc4PzEGZ.s 			page 2


  58              		.size	position_ref, 4
  59              	position_ref:
  60 000c 00000000 		.space	4
  61              		.global	position_ref_initial
  62              		.align	2
  63              		.type	position_ref_initial, %object
  64              		.size	position_ref_initial, 4
  65              	position_ref_initial:
  66 0010 00000000 		.space	4
  67              		.global	position_ref_old
  68              		.align	2
  69              		.type	position_ref_old, %object
  70              		.size	position_ref_old, 4
  71              	position_ref_old:
  72 0014 00000000 		.space	4
  73              		.comm	axis_position,4,4
  74              		.global	lead_angle
  75              		.align	2
  76              		.type	lead_angle, %object
  77              		.size	lead_angle, 4
  78              	lead_angle:
  79 0018 00000000 		.space	4
  80              		.global	step_array
  81              		.data
  82 0002 0000     		.align	2
  83              		.type	step_array, %object
  84              		.size	step_array, 68
  85              	step_array:
  86 0004 00000000 		.word	0
  87 0008 02000000 		.word	2
  88 000c 0A000000 		.word	10
  89 0010 2A000000 		.word	42
  90 0014 AA000000 		.word	170
  91 0018 AA020000 		.word	682
  92 001c AA0A0000 		.word	2730
  93 0020 AA2A0000 		.word	10922
  94 0024 AAAA0000 		.word	43690
  95 0028 AAAA0200 		.word	174762
  96 002c AAAA0A00 		.word	699050
  97 0030 AAAA2A00 		.word	2796202
  98 0034 AAAAAA00 		.word	11184810
  99 0038 AAAAAA02 		.word	44739242
 100 003c AAAAAA0A 		.word	178956970
 101 0040 AAAAAA2A 		.word	715827882
 102 0044 AAAAAAAA 		.word	-1431655766
 103              		.global	switch_val
 104              		.bss
 105              		.type	switch_val, %object
 106              		.size	switch_val, 1
 107              	switch_val:
 108 001c 00       		.space	1
 109              		.global	switch_old
 110              		.type	switch_old, %object
 111              		.size	switch_old, 1
 112              	switch_old:
 113 001d 00       		.space	1
 114              		.global	step_count
ARM GAS  C:\Users\pajoh\AppData\Local\Temp\cc4PzEGZ.s 			page 3


 115              		.type	step_count, %object
 116              		.size	step_count, 1
 117              	step_count:
 118 001e 00       		.space	1
 119              		.comm	fullstepMap,800,4
 120              		.comm	fullstepMapSorted,800,4
 121              		.global	offsetMap
 122              		.data
 123              		.align	2
 124              		.type	offsetMap, %object
 125              		.size	offsetMap, 2048
 126              	offsetMap:
 127 0048 00000000 		.word	0
 128 004c 00000000 		.word	0
 129 0050 00000000 		.word	0
 130 0054 FDFFFFFF 		.word	-3
 131 0058 FDFFFFFF 		.word	-3
 132 005c FDFFFFFF 		.word	-3
 133 0060 FEFFFFFF 		.word	-2
 134 0064 FEFFFFFF 		.word	-2
 135 0068 FAFFFFFF 		.word	-6
 136 006c FAFFFFFF 		.word	-6
 137 0070 FAFFFFFF 		.word	-6
 138 0074 FDFFFFFF 		.word	-3
 139 0078 FDFFFFFF 		.word	-3
 140 007c FBFFFFFF 		.word	-5
 141 0080 FBFFFFFF 		.word	-5
 142 0084 FBFFFFFF 		.word	-5
 143 0088 FBFFFFFF 		.word	-5
 144 008c FBFFFFFF 		.word	-5
 145 0090 F8FFFFFF 		.word	-8
 146 0094 F8FFFFFF 		.word	-8
 147 0098 F8FFFFFF 		.word	-8
 148 009c FAFFFFFF 		.word	-6
 149 00a0 FAFFFFFF 		.word	-6
 150 00a4 FAFFFFFF 		.word	-6
 151 00a8 F8FFFFFF 		.word	-8
 152 00ac F8FFFFFF 		.word	-8
 153 00b0 F9FFFFFF 		.word	-7
 154 00b4 F9FFFFFF 		.word	-7
 155 00b8 F9FFFFFF 		.word	-7
 156 00bc F6FFFFFF 		.word	-10
 157 00c0 F6FFFFFF 		.word	-10
 158 00c4 F8FFFFFF 		.word	-8
 159 00c8 F8FFFFFF 		.word	-8
 160 00cc F8FFFFFF 		.word	-8
 161 00d0 F5FFFFFF 		.word	-11
 162 00d4 F5FFFFFF 		.word	-11
 163 00d8 F6FFFFFF 		.word	-10
 164 00dc F6FFFFFF 		.word	-10
 165 00e0 F6FFFFFF 		.word	-10
 166 00e4 F3FFFFFF 		.word	-13
 167 00e8 F3FFFFFF 		.word	-13
 168 00ec F5FFFFFF 		.word	-11
 169 00f0 F5FFFFFF 		.word	-11
 170 00f4 F5FFFFFF 		.word	-11
 171 00f8 F4FFFFFF 		.word	-12
ARM GAS  C:\Users\pajoh\AppData\Local\Temp\cc4PzEGZ.s 			page 4


 172 00fc F4FFFFFF 		.word	-12
 173 0100 F4FFFFFF 		.word	-12
 174 0104 F4FFFFFF 		.word	-12
 175 0108 F4FFFFFF 		.word	-12
 176 010c F1FFFFFF 		.word	-15
 177 0110 F1FFFFFF 		.word	-15
 178 0114 F1FFFFFF 		.word	-15
 179 0118 F4FFFFFF 		.word	-12
 180 011c F4FFFFFF 		.word	-12
 181 0120 F2FFFFFF 		.word	-14
 182 0124 F2FFFFFF 		.word	-14
 183 0128 F2FFFFFF 		.word	-14
 184 012c F4FFFFFF 		.word	-12
 185 0130 F4FFFFFF 		.word	-12
 186 0134 F1FFFFFF 		.word	-15
 187 0138 F1FFFFFF 		.word	-15
 188 013c F1FFFFFF 		.word	-15
 189 0140 F3FFFFFF 		.word	-13
 190 0144 F3FFFFFF 		.word	-13
 191 0148 F2FFFFFF 		.word	-14
 192 014c F2FFFFFF 		.word	-14
 193 0150 F2FFFFFF 		.word	-14
 194 0154 F3FFFFFF 		.word	-13
 195 0158 F3FFFFFF 		.word	-13
 196 015c F3FFFFFF 		.word	-13
 197 0160 F1FFFFFF 		.word	-15
 198 0164 F1FFFFFF 		.word	-15
 199 0168 F3FFFFFF 		.word	-13
 200 016c F3FFFFFF 		.word	-13
 201 0170 F3FFFFFF 		.word	-13
 202 0174 F2FFFFFF 		.word	-14
 203 0178 F2FFFFFF 		.word	-14
 204 017c F3FFFFFF 		.word	-13
 205 0180 F3FFFFFF 		.word	-13
 206 0184 F3FFFFFF 		.word	-13
 207 0188 F1FFFFFF 		.word	-15
 208 018c F1FFFFFF 		.word	-15
 209 0190 F4FFFFFF 		.word	-12
 210 0194 F4FFFFFF 		.word	-12
 211 0198 F4FFFFFF 		.word	-12
 212 019c F4FFFFFF 		.word	-12
 213 01a0 F4FFFFFF 		.word	-12
 214 01a4 F4FFFFFF 		.word	-12
 215 01a8 F5FFFFFF 		.word	-11
 216 01ac F5FFFFFF 		.word	-11
 217 01b0 F3FFFFFF 		.word	-13
 218 01b4 F3FFFFFF 		.word	-13
 219 01b8 F3FFFFFF 		.word	-13
 220 01bc F6FFFFFF 		.word	-10
 221 01c0 F6FFFFFF 		.word	-10
 222 01c4 F5FFFFFF 		.word	-11
 223 01c8 F5FFFFFF 		.word	-11
 224 01cc F5FFFFFF 		.word	-11
 225 01d0 F6FFFFFF 		.word	-10
 226 01d4 F6FFFFFF 		.word	-10
 227 01d8 F4FFFFFF 		.word	-12
 228 01dc F4FFFFFF 		.word	-12
ARM GAS  C:\Users\pajoh\AppData\Local\Temp\cc4PzEGZ.s 			page 5


 229 01e0 F4FFFFFF 		.word	-12
 230 01e4 F7FFFFFF 		.word	-9
 231 01e8 F7FFFFFF 		.word	-9
 232 01ec F7FFFFFF 		.word	-9
 233 01f0 F7FFFFFF 		.word	-9
 234 01f4 F7FFFFFF 		.word	-9
 235 01f8 F8FFFFFF 		.word	-8
 236 01fc F8FFFFFF 		.word	-8
 237 0200 F8FFFFFF 		.word	-8
 238 0204 F7FFFFFF 		.word	-9
 239 0208 F7FFFFFF 		.word	-9
 240 020c F9FFFFFF 		.word	-7
 241 0210 F9FFFFFF 		.word	-7
 242 0214 F9FFFFFF 		.word	-7
 243 0218 F9FFFFFF 		.word	-7
 244 021c F9FFFFFF 		.word	-7
 245 0220 FBFFFFFF 		.word	-5
 246 0224 FBFFFFFF 		.word	-5
 247 0228 FBFFFFFF 		.word	-5
 248 022c F9FFFFFF 		.word	-7
 249 0230 F9FFFFFF 		.word	-7
 250 0234 FCFFFFFF 		.word	-4
 251 0238 FCFFFFFF 		.word	-4
 252 023c FCFFFFFF 		.word	-4
 253 0240 FCFFFFFF 		.word	-4
 254 0244 FCFFFFFF 		.word	-4
 255 0248 FCFFFFFF 		.word	-4
 256 024c FCFFFFFF 		.word	-4
 257 0250 FCFFFFFF 		.word	-4
 258 0254 FBFFFFFF 		.word	-5
 259 0258 FBFFFFFF 		.word	-5
 260 025c FBFFFFFF 		.word	-5
 261 0260 FDFFFFFF 		.word	-3
 262 0264 FDFFFFFF 		.word	-3
 263 0268 FEFFFFFF 		.word	-2
 264 026c FEFFFFFF 		.word	-2
 265 0270 FEFFFFFF 		.word	-2
 266 0274 FFFFFFFF 		.word	-1
 267 0278 FFFFFFFF 		.word	-1
 268 027c FDFFFFFF 		.word	-3
 269 0280 FDFFFFFF 		.word	-3
 270 0284 FDFFFFFF 		.word	-3
 271 0288 00000000 		.word	0
 272 028c 00000000 		.word	0
 273 0290 00000000 		.word	0
 274 0294 00000000 		.word	0
 275 0298 00000000 		.word	0
 276 029c 01000000 		.word	1
 277 02a0 01000000 		.word	1
 278 02a4 01000000 		.word	1
 279 02a8 00000000 		.word	0
 280 02ac 00000000 		.word	0
 281 02b0 02000000 		.word	2
 282 02b4 02000000 		.word	2
 283 02b8 02000000 		.word	2
 284 02bc 02000000 		.word	2
 285 02c0 02000000 		.word	2
ARM GAS  C:\Users\pajoh\AppData\Local\Temp\cc4PzEGZ.s 			page 6


 286 02c4 04000000 		.word	4
 287 02c8 04000000 		.word	4
 288 02cc 04000000 		.word	4
 289 02d0 02000000 		.word	2
 290 02d4 02000000 		.word	2
 291 02d8 05000000 		.word	5
 292 02dc 05000000 		.word	5
 293 02e0 05000000 		.word	5
 294 02e4 04000000 		.word	4
 295 02e8 04000000 		.word	4
 296 02ec 06000000 		.word	6
 297 02f0 06000000 		.word	6
 298 02f4 06000000 		.word	6
 299 02f8 05000000 		.word	5
 300 02fc 05000000 		.word	5
 301 0300 05000000 		.word	5
 302 0304 08000000 		.word	8
 303 0308 08000000 		.word	8
 304 030c 07000000 		.word	7
 305 0310 07000000 		.word	7
 306 0314 07000000 		.word	7
 307 0318 09000000 		.word	9
 308 031c 09000000 		.word	9
 309 0320 08000000 		.word	8
 310 0324 08000000 		.word	8
 311 0328 08000000 		.word	8
 312 032c 0B000000 		.word	11
 313 0330 0B000000 		.word	11
 314 0334 0A000000 		.word	10
 315 0338 0A000000 		.word	10
 316 033c 0A000000 		.word	10
 317 0340 0B000000 		.word	11
 318 0344 0B000000 		.word	11
 319 0348 0A000000 		.word	10
 320 034c 0A000000 		.word	10
 321 0350 0A000000 		.word	10
 322 0354 0C000000 		.word	12
 323 0358 0C000000 		.word	12
 324 035c 0C000000 		.word	12
 325 0360 0B000000 		.word	11
 326 0364 0B000000 		.word	11
 327 0368 0D000000 		.word	13
 328 036c 0D000000 		.word	13
 329 0370 0D000000 		.word	13
 330 0374 0B000000 		.word	11
 331 0378 0B000000 		.word	11
 332 037c 0D000000 		.word	13
 333 0380 0D000000 		.word	13
 334 0384 0D000000 		.word	13
 335 0388 0C000000 		.word	12
 336 038c 0C000000 		.word	12
 337 0390 0D000000 		.word	13
 338 0394 0D000000 		.word	13
 339 0398 0D000000 		.word	13
 340 039c 0B000000 		.word	11
 341 03a0 0B000000 		.word	11
 342 03a4 0B000000 		.word	11
ARM GAS  C:\Users\pajoh\AppData\Local\Temp\cc4PzEGZ.s 			page 7


 343 03a8 0E000000 		.word	14
 344 03ac 0E000000 		.word	14
 345 03b0 0C000000 		.word	12
 346 03b4 0C000000 		.word	12
 347 03b8 0C000000 		.word	12
 348 03bc 0E000000 		.word	14
 349 03c0 0E000000 		.word	14
 350 03c4 0B000000 		.word	11
 351 03c8 0B000000 		.word	11
 352 03cc 0B000000 		.word	11
 353 03d0 0C000000 		.word	12
 354 03d4 0C000000 		.word	12
 355 03d8 0B000000 		.word	11
 356 03dc 0B000000 		.word	11
 357 03e0 0B000000 		.word	11
 358 03e4 0C000000 		.word	12
 359 03e8 0C000000 		.word	12
 360 03ec 09000000 		.word	9
 361 03f0 09000000 		.word	9
 362 03f4 09000000 		.word	9
 363 03f8 0B000000 		.word	11
 364 03fc 0B000000 		.word	11
 365 0400 0B000000 		.word	11
 366 0404 09000000 		.word	9
 367 0408 09000000 		.word	9
 368 040c 0A000000 		.word	10
 369 0410 0A000000 		.word	10
 370 0414 0A000000 		.word	10
 371 0418 07000000 		.word	7
 372 041c 07000000 		.word	7
 373 0420 08000000 		.word	8
 374 0424 08000000 		.word	8
 375 0428 08000000 		.word	8
 376 042c 07000000 		.word	7
 377 0430 07000000 		.word	7
 378 0434 06000000 		.word	6
 379 0438 06000000 		.word	6
 380 043c 06000000 		.word	6
 381 0440 04000000 		.word	4
 382 0444 04000000 		.word	4
 383 0448 06000000 		.word	6
 384 044c 06000000 		.word	6
 385 0450 06000000 		.word	6
 386 0454 03000000 		.word	3
 387 0458 03000000 		.word	3
 388 045c 03000000 		.word	3
 389 0460 02000000 		.word	2
 390 0464 02000000 		.word	2
 391 0468 00000000 		.word	0
 392 046c 00000000 		.word	0
 393 0470 00000000 		.word	0
 394 0474 01000000 		.word	1
 395 0478 01000000 		.word	1
 396 047c 00000000 		.word	0
 397 0480 00000000 		.word	0
 398 0484 00000000 		.word	0
 399 0488 00000000 		.word	0
ARM GAS  C:\Users\pajoh\AppData\Local\Temp\cc4PzEGZ.s 			page 8


 400 048c 00000000 		.word	0
 401 0490 FDFFFFFF 		.word	-3
 402 0494 FDFFFFFF 		.word	-3
 403 0498 FDFFFFFF 		.word	-3
 404 049c FEFFFFFF 		.word	-2
 405 04a0 FEFFFFFF 		.word	-2
 406 04a4 FEFFFFFF 		.word	-2
 407 04a8 FCFFFFFF 		.word	-4
 408 04ac FCFFFFFF 		.word	-4
 409 04b0 FCFFFFFF 		.word	-4
 410 04b4 FCFFFFFF 		.word	-4
 411 04b8 FCFFFFFF 		.word	-4
 412 04bc F9FFFFFF 		.word	-7
 413 04c0 F9FFFFFF 		.word	-7
 414 04c4 FAFFFFFF 		.word	-6
 415 04c8 FAFFFFFF 		.word	-6
 416 04cc FAFFFFFF 		.word	-6
 417 04d0 F7FFFFFF 		.word	-9
 418 04d4 F7FFFFFF 		.word	-9
 419 04d8 F7FFFFFF 		.word	-9
 420 04dc F7FFFFFF 		.word	-9
 421 04e0 F7FFFFFF 		.word	-9
 422 04e4 F4FFFFFF 		.word	-12
 423 04e8 F4FFFFFF 		.word	-12
 424 04ec F6FFFFFF 		.word	-10
 425 04f0 F6FFFFFF 		.word	-10
 426 04f4 F6FFFFFF 		.word	-10
 427 04f8 F4FFFFFF 		.word	-12
 428 04fc F4FFFFFF 		.word	-12
 429 0500 F4FFFFFF 		.word	-12
 430 0504 F5FFFFFF 		.word	-11
 431 0508 F5FFFFFF 		.word	-11
 432 050c F2FFFFFF 		.word	-14
 433 0510 F2FFFFFF 		.word	-14
 434 0514 F2FFFFFF 		.word	-14
 435 0518 F3FFFFFF 		.word	-13
 436 051c F3FFFFFF 		.word	-13
 437 0520 F2FFFFFF 		.word	-14
 438 0524 F2FFFFFF 		.word	-14
 439 0528 F2FFFFFF 		.word	-14
 440 052c F2FFFFFF 		.word	-14
 441 0530 F2FFFFFF 		.word	-14
 442 0534 EFFFFFFF 		.word	-17
 443 0538 EFFFFFFF 		.word	-17
 444 053c EFFFFFFF 		.word	-17
 445 0540 F1FFFFFF 		.word	-15
 446 0544 F1FFFFFF 		.word	-15
 447 0548 EFFFFFFF 		.word	-17
 448 054c EFFFFFFF 		.word	-17
 449 0550 EFFFFFFF 		.word	-17
 450 0554 F0FFFFFF 		.word	-16
 451 0558 F0FFFFFF 		.word	-16
 452 055c F0FFFFFF 		.word	-16
 453 0560 EDFFFFFF 		.word	-19
 454 0564 EDFFFFFF 		.word	-19
 455 0568 EFFFFFFF 		.word	-17
 456 056c EFFFFFFF 		.word	-17
ARM GAS  C:\Users\pajoh\AppData\Local\Temp\cc4PzEGZ.s 			page 9


 457 0570 EFFFFFFF 		.word	-17
 458 0574 EEFFFFFF 		.word	-18
 459 0578 EEFFFFFF 		.word	-18
 460 057c EFFFFFFF 		.word	-17
 461 0580 EFFFFFFF 		.word	-17
 462 0584 EFFFFFFF 		.word	-17
 463 0588 ECFFFFFF 		.word	-20
 464 058c ECFFFFFF 		.word	-20
 465 0590 EFFFFFFF 		.word	-17
 466 0594 EFFFFFFF 		.word	-17
 467 0598 EFFFFFFF 		.word	-17
 468 059c EDFFFFFF 		.word	-19
 469 05a0 EDFFFFFF 		.word	-19
 470 05a4 EDFFFFFF 		.word	-19
 471 05a8 EFFFFFFF 		.word	-17
 472 05ac EFFFFFFF 		.word	-17
 473 05b0 ECFFFFFF 		.word	-20
 474 05b4 ECFFFFFF 		.word	-20
 475 05b8 ECFFFFFF 		.word	-20
 476 05bc EFFFFFFF 		.word	-17
 477 05c0 EFFFFFFF 		.word	-17
 478 05c4 EEFFFFFF 		.word	-18
 479 05c8 EEFFFFFF 		.word	-18
 480 05cc EEFFFFFF 		.word	-18
 481 05d0 EEFFFFFF 		.word	-18
 482 05d4 EEFFFFFF 		.word	-18
 483 05d8 ECFFFFFF 		.word	-20
 484 05dc ECFFFFFF 		.word	-20
 485 05e0 ECFFFFFF 		.word	-20
 486 05e4 EEFFFFFF 		.word	-18
 487 05e8 EEFFFFFF 		.word	-18
 488 05ec EDFFFFFF 		.word	-19
 489 05f0 EDFFFFFF 		.word	-19
 490 05f4 EDFFFFFF 		.word	-19
 491 05f8 EFFFFFFF 		.word	-17
 492 05fc EFFFFFFF 		.word	-17
 493 0600 EFFFFFFF 		.word	-17
 494 0604 ECFFFFFF 		.word	-20
 495 0608 ECFFFFFF 		.word	-20
 496 060c EFFFFFFF 		.word	-17
 497 0610 EFFFFFFF 		.word	-17
 498 0614 EFFFFFFF 		.word	-17
 499 0618 EFFFFFFF 		.word	-17
 500 061c EFFFFFFF 		.word	-17
 501 0620 F0FFFFFF 		.word	-16
 502 0624 F0FFFFFF 		.word	-16
 503 0628 F0FFFFFF 		.word	-16
 504 062c EEFFFFFF 		.word	-18
 505 0630 EEFFFFFF 		.word	-18
 506 0634 F0FFFFFF 		.word	-16
 507 0638 F0FFFFFF 		.word	-16
 508 063c F0FFFFFF 		.word	-16
 509 0640 F0FFFFFF 		.word	-16
 510 0644 F0FFFFFF 		.word	-16
 511 0648 F1FFFFFF 		.word	-15
 512 064c F1FFFFFF 		.word	-15
 513 0650 F1FFFFFF 		.word	-15
ARM GAS  C:\Users\pajoh\AppData\Local\Temp\cc4PzEGZ.s 			page 10


 514 0654 EFFFFFFF 		.word	-17
 515 0658 EFFFFFFF 		.word	-17
 516 065c EFFFFFFF 		.word	-17
 517 0660 F1FFFFFF 		.word	-15
 518 0664 F1FFFFFF 		.word	-15
 519 0668 F1FFFFFF 		.word	-15
 520 066c F1FFFFFF 		.word	-15
 521 0670 F1FFFFFF 		.word	-15
 522 0674 F2FFFFFF 		.word	-14
 523 0678 F2FFFFFF 		.word	-14
 524 067c F1FFFFFF 		.word	-15
 525 0680 F1FFFFFF 		.word	-15
 526 0684 F1FFFFFF 		.word	-15
 527 0688 F4FFFFFF 		.word	-12
 528 068c F4FFFFFF 		.word	-12
 529 0690 F3FFFFFF 		.word	-13
 530 0694 F3FFFFFF 		.word	-13
 531 0698 F3FFFFFF 		.word	-13
 532 069c F5FFFFFF 		.word	-11
 533 06a0 F5FFFFFF 		.word	-11
 534 06a4 F5FFFFFF 		.word	-11
 535 06a8 F4FFFFFF 		.word	-12
 536 06ac F4FFFFFF 		.word	-12
 537 06b0 F6FFFFFF 		.word	-10
 538 06b4 F6FFFFFF 		.word	-10
 539 06b8 F6FFFFFF 		.word	-10
 540 06bc F6FFFFFF 		.word	-10
 541 06c0 F6FFFFFF 		.word	-10
 542 06c4 F8FFFFFF 		.word	-8
 543 06c8 F8FFFFFF 		.word	-8
 544 06cc F8FFFFFF 		.word	-8
 545 06d0 F5FFFFFF 		.word	-11
 546 06d4 F5FFFFFF 		.word	-11
 547 06d8 F9FFFFFF 		.word	-7
 548 06dc F9FFFFFF 		.word	-7
 549 06e0 F9FFFFFF 		.word	-7
 550 06e4 F8FFFFFF 		.word	-8
 551 06e8 F8FFFFFF 		.word	-8
 552 06ec FAFFFFFF 		.word	-6
 553 06f0 FAFFFFFF 		.word	-6
 554 06f4 FAFFFFFF 		.word	-6
 555 06f8 F9FFFFFF 		.word	-7
 556 06fc F9FFFFFF 		.word	-7
 557 0700 F9FFFFFF 		.word	-7
 558 0704 FCFFFFFF 		.word	-4
 559 0708 FCFFFFFF 		.word	-4
 560 070c FBFFFFFF 		.word	-5
 561 0710 FBFFFFFF 		.word	-5
 562 0714 FBFFFFFF 		.word	-5
 563 0718 FDFFFFFF 		.word	-3
 564 071c FDFFFFFF 		.word	-3
 565 0720 FCFFFFFF 		.word	-4
 566 0724 FCFFFFFF 		.word	-4
 567 0728 FCFFFFFF 		.word	-4
 568 072c FFFFFFFF 		.word	-1
 569 0730 FFFFFFFF 		.word	-1
 570 0734 FEFFFFFF 		.word	-2
ARM GAS  C:\Users\pajoh\AppData\Local\Temp\cc4PzEGZ.s 			page 11


 571 0738 FEFFFFFF 		.word	-2
 572 073c FEFFFFFF 		.word	-2
 573 0740 00000000 		.word	0
 574 0744 00000000 		.word	0
 575 0748 FEFFFFFF 		.word	-2
 576 074c FEFFFFFF 		.word	-2
 577 0750 FEFFFFFF 		.word	-2
 578 0754 00000000 		.word	0
 579 0758 00000000 		.word	0
 580 075c 00000000 		.word	0
 581 0760 00000000 		.word	0
 582 0764 00000000 		.word	0
 583 0768 01000000 		.word	1
 584 076c 01000000 		.word	1
 585 0770 01000000 		.word	1
 586 0774 00000000 		.word	0
 587 0778 00000000 		.word	0
 588 077c 02000000 		.word	2
 589 0780 02000000 		.word	2
 590 0784 02000000 		.word	2
 591 0788 01000000 		.word	1
 592 078c 01000000 		.word	1
 593 0790 03000000 		.word	3
 594 0794 03000000 		.word	3
 595 0798 03000000 		.word	3
 596 079c 01000000 		.word	1
 597 07a0 01000000 		.word	1
 598 07a4 01000000 		.word	1
 599 07a8 03000000 		.word	3
 600 07ac 03000000 		.word	3
 601 07b0 02000000 		.word	2
 602 07b4 02000000 		.word	2
 603 07b8 02000000 		.word	2
 604 07bc 03000000 		.word	3
 605 07c0 03000000 		.word	3
 606 07c4 02000000 		.word	2
 607 07c8 02000000 		.word	2
 608 07cc 02000000 		.word	2
 609 07d0 03000000 		.word	3
 610 07d4 03000000 		.word	3
 611 07d8 02000000 		.word	2
 612 07dc 02000000 		.word	2
 613 07e0 02000000 		.word	2
 614 07e4 03000000 		.word	3
 615 07e8 03000000 		.word	3
 616 07ec 00000000 		.word	0
 617 07f0 00000000 		.word	0
 618 07f4 00000000 		.word	0
 619 07f8 03000000 		.word	3
 620 07fc 03000000 		.word	3
 621 0800 03000000 		.word	3
 622 0804 01000000 		.word	1
 623 0808 01000000 		.word	1
 624 080c 02000000 		.word	2
 625 0810 02000000 		.word	2
 626 0814 02000000 		.word	2
 627 0818 00000000 		.word	0
ARM GAS  C:\Users\pajoh\AppData\Local\Temp\cc4PzEGZ.s 			page 12


 628 081c 00000000 		.word	0
 629 0820 01000000 		.word	1
 630 0824 01000000 		.word	1
 631 0828 01000000 		.word	1
 632 082c 00000000 		.word	0
 633 0830 00000000 		.word	0
 634 0834 00000000 		.word	0
 635 0838 00000000 		.word	0
 636 083c 00000000 		.word	0
 637 0840 FFFFFFFF 		.word	-1
 638 0844 FFFFFFFF 		.word	-1
 639              		.comm	min,4,4
 640              		.comm	min_index,4,4
 641              		.comm	split_position,4,4
 642              		.comm	closest_int,4,4
 643              		.section	.rodata
 644              		.align	2
 645              	.LC0:
 646 0000 256C642C 		.ascii	"%ld,%ld,%ld,%ld,%ld,%ld,%ld,%ld\012\000"
 646      256C642C 
 646      256C642C 
 646      256C642C 
 646      256C642C 
 647              		.section	.text.main,"ax",%progbits
 648              		.align	2
 649              		.global	main
 650              		.thumb
 651              		.thumb_func
 652              		.type	main, %function
 653              	main:
 654              	.LFB64:
 655              		.file 1 "main.c"
   1:main.c        **** /*******************************************************************************
   2:main.c        **** * File Name: main.c
   3:main.c        **** ********************************************************************************
   4:main.c        **** * Copyright 2012-2015, Cypress Semiconductor Corporation. All rights reserved.
   5:main.c        **** * This software is owned by Cypress Semiconductor Corporation and is protected
   6:main.c        **** * by and subject to worldwide patent and copyright laws and treaties.
   7:main.c        **** * Therefore, you may use this software only as provided in the license agreement
   8:main.c        **** * accompanying the software package from which you obtained this software.
   9:main.c        **** * CYPRESS AND ITS SUPPLIERS MAKE NO WARRANTY OF ANY KIND, EXPRESS OR IMPLIED,
  10:main.c        **** * WITH REGARD TO THIS SOFTWARE, INCLUDING, BUT NOT LIMITED TO, NONINFRINGEMENT,
  11:main.c        **** * IMPLIED WARRANTIES OF MERCHANTABILITY AND FITNESS FOR A PARTICULAR PURPOSE.
  12:main.c        **** *******************************************************************************/
  13:main.c        **** 
  14:main.c        **** #include <project.h>
  15:main.c        **** #include "string.h"
  16:main.c        **** #include "stdio.h"
  17:main.c        **** #include "pid.h"
  18:main.c        **** 
  19:main.c        **** //with direction held high,
  20:main.c        **** //angle increases and shaft rotates clockwise viewed from top
  21:main.c        **** 
  22:main.c        **** #define SPI_CMD_READ 0x4000 /*!< flag indicating read attempt when using SPI interface */
  23:main.c        **** #define SPI_REG_AGC 0x3ffd /*!< agc register when using SPI */
  24:main.c        **** #define SPI_REG_MAG 0x3ffe /*!< magnitude register when using SPI */
  25:main.c        **** #define SPI_REG_DATA 0x3fff /*!< data register when using SPI */
ARM GAS  C:\Users\pajoh\AppData\Local\Temp\cc4PzEGZ.s 			page 13


  26:main.c        **** #define SPI_REG_CLRERR 0x1 /*!< clear error register when using SPI */
  27:main.c        **** 
  28:main.c        **** #define LIS3DH_ADDRESS    (0x18)
  29:main.c        **** #define FULL_STEP (0u)
  30:main.c        **** #define HALF_STEP (1u)
  31:main.c        **** #define QUARTER_STEP (2u)
  32:main.c        **** #define EIGHTH_STEP (3u)
  33:main.c        **** #define SIXTEENTH_STEP (7u)
  34:main.c        **** 
  35:main.c        **** uint8 ACC_Read_buffer[10];
  36:main.c        **** uint8 ACC_Write_buffer[8];
  37:main.c        **** 
  38:main.c        **** 
  39:main.c        **** volatile uint16 read_angle_command = SPI_CMD_READ | SPI_REG_DATA;
  40:main.c        **** 
  41:main.c        **** volatile int32 angle;
  42:main.c        **** volatile int32 angle_electric;
  43:main.c        **** volatile int32 angle_diff;
  44:main.c        **** volatile int32 torque_command = 0;
  45:main.c        **** 
  46:main.c        **** int32 angle_old;
  47:main.c        **** struct accel{
  48:main.c        ****     int16 accel_x;
  49:main.c        ****     int16 accel_y;
  50:main.c        ****     int16 accel_z;
  51:main.c        ****     int16 x_offset;
  52:main.c        ****     int16 y_offset;
  53:main.c        ****     int16 z_offset;
  54:main.c        ****     int32 x_sum;
  55:main.c        ****     int32 y_sum;
  56:main.c        ****     int32 z_sum;
  57:main.c        ****     int16 x_buffer[128];
  58:main.c        ****     int16 y_buffer[128];
  59:main.c        ****     int16 z_buffer[128];
  60:main.c        ****     uint16 x_index;
  61:main.c        ****     uint16 y_index;
  62:main.c        ****     uint16 z_index;
  63:main.c        **** };
  64:main.c        **** 
  65:main.c        **** 
  66:main.c        **** volatile uint32 angle_sum;
  67:main.c        **** char transmit_buff[80];
  68:main.c        **** volatile uint8 controller_tick;
  69:main.c        **** volatile int32 axis_position_filtered = 0;
  70:main.c        **** volatile int32 axis_position_filtered_2 = 0;
  71:main.c        **** int16 position;
  72:main.c        **** int32 position_ref = 0;
  73:main.c        **** int32 position_ref_initial = 0;
  74:main.c        **** int32 position_ref_old = 0;
  75:main.c        **** volatile int32 axis_position;
  76:main.c        **** volatile int32 lead_angle = 0;
  77:main.c        **** 
  78:main.c        **** uint8 spiCalcEvenParity(uint16 value);
  79:main.c        **** void writeRegister8(uint8 reg, uint8 val);
  80:main.c        **** uint8 readRegister8(uint8 reg);
  81:main.c        **** int32 axis_update(int32 axis, int32 angle);
  82:main.c        **** void accel_update(struct accel * acc_struct);
ARM GAS  C:\Users\pajoh\AppData\Local\Temp\cc4PzEGZ.s 			page 14


  83:main.c        **** uint32 angle_update(void);
  84:main.c        **** void accel_offset_update(struct accel * acc_struct);
  85:main.c        **** 
  86:main.c        **** volatile uint32 step_array[17] = {   0x00000000,
  87:main.c        ****                             0x00000002,
  88:main.c        ****                             0x0000000A,
  89:main.c        ****                             0x0000002A,
  90:main.c        ****                             0x000000AA,
  91:main.c        ****                             0x000002AA,
  92:main.c        ****                             0x00000AAA,
  93:main.c        ****                             0x00002AAA,
  94:main.c        ****                             0x0000AAAA,
  95:main.c        ****                             0x0002AAAA,
  96:main.c        ****                             0x000AAAAA,
  97:main.c        ****                             0x002AAAAA,
  98:main.c        ****                             0x00AAAAAA,
  99:main.c        ****                             0x02AAAAAA,
 100:main.c        ****                             0x0AAAAAAA,
 101:main.c        ****                             0x2AAAAAAA,
 102:main.c        ****                             0xAAAAAAAA  };
 103:main.c        **** 
 104:main.c        **** uint8 switch_val = 0;
 105:main.c        **** uint8 switch_old = 0;
 106:main.c        **** uint8 step_count = 0;
 107:main.c        **** 
 108:main.c        **** int32 fullstepMap[200];
 109:main.c        **** int32 fullstepMapSorted[200];
 110:main.c        **** volatile int32 offsetMap[512] = {0,
 111:main.c        **** 0,
 112:main.c        **** 0,
 113:main.c        **** -3,
 114:main.c        **** -3,
 115:main.c        **** -3,
 116:main.c        **** -2,
 117:main.c        **** -2,
 118:main.c        **** -6,
 119:main.c        **** -6,
 120:main.c        **** -6,
 121:main.c        **** -3,
 122:main.c        **** -3,
 123:main.c        **** -5,
 124:main.c        **** -5,
 125:main.c        **** -5,
 126:main.c        **** -5,
 127:main.c        **** -5,
 128:main.c        **** -8,
 129:main.c        **** -8,
 130:main.c        **** -8,
 131:main.c        **** -6,
 132:main.c        **** -6,
 133:main.c        **** -6,
 134:main.c        **** -8,
 135:main.c        **** -8,
 136:main.c        **** -7,
 137:main.c        **** -7,
 138:main.c        **** -7,
 139:main.c        **** -10,
ARM GAS  C:\Users\pajoh\AppData\Local\Temp\cc4PzEGZ.s 			page 15


 140:main.c        **** -10,
 141:main.c        **** -8,
 142:main.c        **** -8,
 143:main.c        **** -8,
 144:main.c        **** -11,
 145:main.c        **** -11,
 146:main.c        **** -10,
 147:main.c        **** -10,
 148:main.c        **** -10,
 149:main.c        **** -13,
 150:main.c        **** -13,
 151:main.c        **** -11,
 152:main.c        **** -11,
 153:main.c        **** -11,
 154:main.c        **** -12,
 155:main.c        **** -12,
 156:main.c        **** -12,
 157:main.c        **** -12,
 158:main.c        **** -12,
 159:main.c        **** -15,
 160:main.c        **** -15,
 161:main.c        **** -15,
 162:main.c        **** -12,
 163:main.c        **** -12,
 164:main.c        **** -14,
 165:main.c        **** -14,
 166:main.c        **** -14,
 167:main.c        **** -12,
 168:main.c        **** -12,
 169:main.c        **** -15,
 170:main.c        **** -15,
 171:main.c        **** -15,
 172:main.c        **** -13,
 173:main.c        **** -13,
 174:main.c        **** -14,
 175:main.c        **** -14,
 176:main.c        **** -14,
 177:main.c        **** -13,
 178:main.c        **** -13,
 179:main.c        **** -13,
 180:main.c        **** -15,
 181:main.c        **** -15,
 182:main.c        **** -13,
 183:main.c        **** -13,
 184:main.c        **** -13,
 185:main.c        **** -14,
 186:main.c        **** -14,
 187:main.c        **** -13,
 188:main.c        **** -13,
 189:main.c        **** -13,
 190:main.c        **** -15,
 191:main.c        **** -15,
 192:main.c        **** -12,
 193:main.c        **** -12,
 194:main.c        **** -12,
 195:main.c        **** -12,
 196:main.c        **** -12,
ARM GAS  C:\Users\pajoh\AppData\Local\Temp\cc4PzEGZ.s 			page 16


 197:main.c        **** -12,
 198:main.c        **** -11,
 199:main.c        **** -11,
 200:main.c        **** -13,
 201:main.c        **** -13,
 202:main.c        **** -13,
 203:main.c        **** -10,
 204:main.c        **** -10,
 205:main.c        **** -11,
 206:main.c        **** -11,
 207:main.c        **** -11,
 208:main.c        **** -10,
 209:main.c        **** -10,
 210:main.c        **** -12,
 211:main.c        **** -12,
 212:main.c        **** -12,
 213:main.c        **** -9,
 214:main.c        **** -9,
 215:main.c        **** -9,
 216:main.c        **** -9,
 217:main.c        **** -9,
 218:main.c        **** -8,
 219:main.c        **** -8,
 220:main.c        **** -8,
 221:main.c        **** -9,
 222:main.c        **** -9,
 223:main.c        **** -7,
 224:main.c        **** -7,
 225:main.c        **** -7,
 226:main.c        **** -7,
 227:main.c        **** -7,
 228:main.c        **** -5,
 229:main.c        **** -5,
 230:main.c        **** -5,
 231:main.c        **** -7,
 232:main.c        **** -7,
 233:main.c        **** -4,
 234:main.c        **** -4,
 235:main.c        **** -4,
 236:main.c        **** -4,
 237:main.c        **** -4,
 238:main.c        **** -4,
 239:main.c        **** -4,
 240:main.c        **** -4,
 241:main.c        **** -5,
 242:main.c        **** -5,
 243:main.c        **** -5,
 244:main.c        **** -3,
 245:main.c        **** -3,
 246:main.c        **** -2,
 247:main.c        **** -2,
 248:main.c        **** -2,
 249:main.c        **** -1,
 250:main.c        **** -1,
 251:main.c        **** -3,
 252:main.c        **** -3,
 253:main.c        **** -3,
ARM GAS  C:\Users\pajoh\AppData\Local\Temp\cc4PzEGZ.s 			page 17


 254:main.c        **** 0,
 255:main.c        **** 0,
 256:main.c        **** 0,
 257:main.c        **** 0,
 258:main.c        **** 0,
 259:main.c        **** 1,
 260:main.c        **** 1,
 261:main.c        **** 1,
 262:main.c        **** 0,
 263:main.c        **** 0,
 264:main.c        **** 2,
 265:main.c        **** 2,
 266:main.c        **** 2,
 267:main.c        **** 2,
 268:main.c        **** 2,
 269:main.c        **** 4,
 270:main.c        **** 4,
 271:main.c        **** 4,
 272:main.c        **** 2,
 273:main.c        **** 2,
 274:main.c        **** 5,
 275:main.c        **** 5,
 276:main.c        **** 5,
 277:main.c        **** 4,
 278:main.c        **** 4,
 279:main.c        **** 6,
 280:main.c        **** 6,
 281:main.c        **** 6,
 282:main.c        **** 5,
 283:main.c        **** 5,
 284:main.c        **** 5,
 285:main.c        **** 8,
 286:main.c        **** 8,
 287:main.c        **** 7,
 288:main.c        **** 7,
 289:main.c        **** 7,
 290:main.c        **** 9,
 291:main.c        **** 9,
 292:main.c        **** 8,
 293:main.c        **** 8,
 294:main.c        **** 8,
 295:main.c        **** 11,
 296:main.c        **** 11,
 297:main.c        **** 10,
 298:main.c        **** 10,
 299:main.c        **** 10,
 300:main.c        **** 11,
 301:main.c        **** 11,
 302:main.c        **** 10,
 303:main.c        **** 10,
 304:main.c        **** 10,
 305:main.c        **** 12,
 306:main.c        **** 12,
 307:main.c        **** 12,
 308:main.c        **** 11,
 309:main.c        **** 11,
 310:main.c        **** 13,
ARM GAS  C:\Users\pajoh\AppData\Local\Temp\cc4PzEGZ.s 			page 18


 311:main.c        **** 13,
 312:main.c        **** 13,
 313:main.c        **** 11,
 314:main.c        **** 11,
 315:main.c        **** 13,
 316:main.c        **** 13,
 317:main.c        **** 13,
 318:main.c        **** 12,
 319:main.c        **** 12,
 320:main.c        **** 13,
 321:main.c        **** 13,
 322:main.c        **** 13,
 323:main.c        **** 11,
 324:main.c        **** 11,
 325:main.c        **** 11,
 326:main.c        **** 14,
 327:main.c        **** 14,
 328:main.c        **** 12,
 329:main.c        **** 12,
 330:main.c        **** 12,
 331:main.c        **** 14,
 332:main.c        **** 14,
 333:main.c        **** 11,
 334:main.c        **** 11,
 335:main.c        **** 11,
 336:main.c        **** 12,
 337:main.c        **** 12,
 338:main.c        **** 11,
 339:main.c        **** 11,
 340:main.c        **** 11,
 341:main.c        **** 12,
 342:main.c        **** 12,
 343:main.c        **** 9,
 344:main.c        **** 9,
 345:main.c        **** 9,
 346:main.c        **** 11,
 347:main.c        **** 11,
 348:main.c        **** 11,
 349:main.c        **** 9,
 350:main.c        **** 9,
 351:main.c        **** 10,
 352:main.c        **** 10,
 353:main.c        **** 10,
 354:main.c        **** 7,
 355:main.c        **** 7,
 356:main.c        **** 8,
 357:main.c        **** 8,
 358:main.c        **** 8,
 359:main.c        **** 7,
 360:main.c        **** 7,
 361:main.c        **** 6,
 362:main.c        **** 6,
 363:main.c        **** 6,
 364:main.c        **** 4,
 365:main.c        **** 4,
 366:main.c        **** 6,
 367:main.c        **** 6,
ARM GAS  C:\Users\pajoh\AppData\Local\Temp\cc4PzEGZ.s 			page 19


 368:main.c        **** 6,
 369:main.c        **** 3,
 370:main.c        **** 3,
 371:main.c        **** 3,
 372:main.c        **** 2,
 373:main.c        **** 2,
 374:main.c        **** 0,
 375:main.c        **** 0,
 376:main.c        **** 0,
 377:main.c        **** 1,
 378:main.c        **** 1,
 379:main.c        **** 0,
 380:main.c        **** 0,
 381:main.c        **** 0,
 382:main.c        **** 0,
 383:main.c        **** 0,
 384:main.c        **** -3,
 385:main.c        **** -3,
 386:main.c        **** -3,
 387:main.c        **** -2,
 388:main.c        **** -2,
 389:main.c        **** -2,
 390:main.c        **** -4,
 391:main.c        **** -4,
 392:main.c        **** -4,
 393:main.c        **** -4,
 394:main.c        **** -4,
 395:main.c        **** -7,
 396:main.c        **** -7,
 397:main.c        **** -6,
 398:main.c        **** -6,
 399:main.c        **** -6,
 400:main.c        **** -9,
 401:main.c        **** -9,
 402:main.c        **** -9,
 403:main.c        **** -9,
 404:main.c        **** -9,
 405:main.c        **** -12,
 406:main.c        **** -12,
 407:main.c        **** -10,
 408:main.c        **** -10,
 409:main.c        **** -10,
 410:main.c        **** -12,
 411:main.c        **** -12,
 412:main.c        **** -12,
 413:main.c        **** -11,
 414:main.c        **** -11,
 415:main.c        **** -14,
 416:main.c        **** -14,
 417:main.c        **** -14,
 418:main.c        **** -13,
 419:main.c        **** -13,
 420:main.c        **** -14,
 421:main.c        **** -14,
 422:main.c        **** -14,
 423:main.c        **** -14,
 424:main.c        **** -14,
ARM GAS  C:\Users\pajoh\AppData\Local\Temp\cc4PzEGZ.s 			page 20


 425:main.c        **** -17,
 426:main.c        **** -17,
 427:main.c        **** -17,
 428:main.c        **** -15,
 429:main.c        **** -15,
 430:main.c        **** -17,
 431:main.c        **** -17,
 432:main.c        **** -17,
 433:main.c        **** -16,
 434:main.c        **** -16,
 435:main.c        **** -16,
 436:main.c        **** -19,
 437:main.c        **** -19,
 438:main.c        **** -17,
 439:main.c        **** -17,
 440:main.c        **** -17,
 441:main.c        **** -18,
 442:main.c        **** -18,
 443:main.c        **** -17,
 444:main.c        **** -17,
 445:main.c        **** -17,
 446:main.c        **** -20,
 447:main.c        **** -20,
 448:main.c        **** -17,
 449:main.c        **** -17,
 450:main.c        **** -17,
 451:main.c        **** -19,
 452:main.c        **** -19,
 453:main.c        **** -19,
 454:main.c        **** -17,
 455:main.c        **** -17,
 456:main.c        **** -20,
 457:main.c        **** -20,
 458:main.c        **** -20,
 459:main.c        **** -17,
 460:main.c        **** -17,
 461:main.c        **** -18,
 462:main.c        **** -18,
 463:main.c        **** -18,
 464:main.c        **** -18,
 465:main.c        **** -18,
 466:main.c        **** -20,
 467:main.c        **** -20,
 468:main.c        **** -20,
 469:main.c        **** -18,
 470:main.c        **** -18,
 471:main.c        **** -19,
 472:main.c        **** -19,
 473:main.c        **** -19,
 474:main.c        **** -17,
 475:main.c        **** -17,
 476:main.c        **** -17,
 477:main.c        **** -20,
 478:main.c        **** -20,
 479:main.c        **** -17,
 480:main.c        **** -17,
 481:main.c        **** -17,
ARM GAS  C:\Users\pajoh\AppData\Local\Temp\cc4PzEGZ.s 			page 21


 482:main.c        **** -17,
 483:main.c        **** -17,
 484:main.c        **** -16,
 485:main.c        **** -16,
 486:main.c        **** -16,
 487:main.c        **** -18,
 488:main.c        **** -18,
 489:main.c        **** -16,
 490:main.c        **** -16,
 491:main.c        **** -16,
 492:main.c        **** -16,
 493:main.c        **** -16,
 494:main.c        **** -15,
 495:main.c        **** -15,
 496:main.c        **** -15,
 497:main.c        **** -17,
 498:main.c        **** -17,
 499:main.c        **** -17,
 500:main.c        **** -15,
 501:main.c        **** -15,
 502:main.c        **** -15,
 503:main.c        **** -15,
 504:main.c        **** -15,
 505:main.c        **** -14,
 506:main.c        **** -14,
 507:main.c        **** -15,
 508:main.c        **** -15,
 509:main.c        **** -15,
 510:main.c        **** -12,
 511:main.c        **** -12,
 512:main.c        **** -13,
 513:main.c        **** -13,
 514:main.c        **** -13,
 515:main.c        **** -11,
 516:main.c        **** -11,
 517:main.c        **** -11,
 518:main.c        **** -12,
 519:main.c        **** -12,
 520:main.c        **** -10,
 521:main.c        **** -10,
 522:main.c        **** -10,
 523:main.c        **** -10,
 524:main.c        **** -10,
 525:main.c        **** -8,
 526:main.c        **** -8,
 527:main.c        **** -8,
 528:main.c        **** -11,
 529:main.c        **** -11,
 530:main.c        **** -7,
 531:main.c        **** -7,
 532:main.c        **** -7,
 533:main.c        **** -8,
 534:main.c        **** -8,
 535:main.c        **** -6,
 536:main.c        **** -6,
 537:main.c        **** -6,
 538:main.c        **** -7,
ARM GAS  C:\Users\pajoh\AppData\Local\Temp\cc4PzEGZ.s 			page 22


 539:main.c        **** -7,
 540:main.c        **** -7,
 541:main.c        **** -4,
 542:main.c        **** -4,
 543:main.c        **** -5,
 544:main.c        **** -5,
 545:main.c        **** -5,
 546:main.c        **** -3,
 547:main.c        **** -3,
 548:main.c        **** -4,
 549:main.c        **** -4,
 550:main.c        **** -4,
 551:main.c        **** -1,
 552:main.c        **** -1,
 553:main.c        **** -2,
 554:main.c        **** -2,
 555:main.c        **** -2,
 556:main.c        **** 0,
 557:main.c        **** 0,
 558:main.c        **** -2,
 559:main.c        **** -2,
 560:main.c        **** -2,
 561:main.c        **** 0,
 562:main.c        **** 0,
 563:main.c        **** 0,
 564:main.c        **** 0,
 565:main.c        **** 0,
 566:main.c        **** 1,
 567:main.c        **** 1,
 568:main.c        **** 1,
 569:main.c        **** 0,
 570:main.c        **** 0,
 571:main.c        **** 2,
 572:main.c        **** 2,
 573:main.c        **** 2,
 574:main.c        **** 1,
 575:main.c        **** 1,
 576:main.c        **** 3,
 577:main.c        **** 3,
 578:main.c        **** 3,
 579:main.c        **** 1,
 580:main.c        **** 1,
 581:main.c        **** 1,
 582:main.c        **** 3,
 583:main.c        **** 3,
 584:main.c        **** 2,
 585:main.c        **** 2,
 586:main.c        **** 2,
 587:main.c        **** 3,
 588:main.c        **** 3,
 589:main.c        **** 2,
 590:main.c        **** 2,
 591:main.c        **** 2,
 592:main.c        **** 3,
 593:main.c        **** 3,
 594:main.c        **** 2,
 595:main.c        **** 2,
ARM GAS  C:\Users\pajoh\AppData\Local\Temp\cc4PzEGZ.s 			page 23


 596:main.c        **** 2,
 597:main.c        **** 3,
 598:main.c        **** 3,
 599:main.c        **** 0,
 600:main.c        **** 0,
 601:main.c        **** 0,
 602:main.c        **** 3,
 603:main.c        **** 3,
 604:main.c        **** 3,
 605:main.c        **** 1,
 606:main.c        **** 1,
 607:main.c        **** 2,
 608:main.c        **** 2,
 609:main.c        **** 2,
 610:main.c        **** 0,
 611:main.c        **** 0,
 612:main.c        **** 1,
 613:main.c        **** 1,
 614:main.c        **** 1,
 615:main.c        **** 0,
 616:main.c        **** 0,
 617:main.c        **** 0,
 618:main.c        **** 0,
 619:main.c        **** 0,
 620:main.c        **** -1,
 621:main.c        **** -1 };
 622:main.c        **** 
 623:main.c        **** int32 min;
 624:main.c        **** int32 min_index;
 625:main.c        **** float split_position;
 626:main.c        **** int32 closest_int;
 627:main.c        **** 
 628:main.c        **** 
 629:main.c        **** /*******************************************************************************
 630:main.c        **** * Function Name: main
 631:main.c        **** ********************************************************************************
 632:main.c        **** * Summary:
 633:main.c        **** *  Main function performs following functions:
 634:main.c        **** *   1. Starts Character LCD and print project info
 635:main.c        **** *   2. Starts SPI Master component
 636:main.c        **** *   3. Configures the DMA transfer for RX and TX directions
 637:main.c        **** *   4. Displays the results on Character LCD
 638:main.c        **** *   
 639:main.c        **** * Parameters:
 640:main.c        **** *  None.
 641:main.c        **** *
 642:main.c        **** * Return:
 643:main.c        **** *  None.
 644:main.c        **** *
 645:main.c        **** *******************************************************************************/
 646:main.c        **** int main()
 647:main.c        **** {
 656              		.loc 1 647 0
 657              		.cfi_startproc
 658              		@ args = 0, pretend = 0, frame = 904
 659              		@ frame_needed = 1, uses_anonymous_args = 0
 660 0000 F0B5     		push	{r4, r5, r6, r7, lr}
ARM GAS  C:\Users\pajoh\AppData\Local\Temp\cc4PzEGZ.s 			page 24


 661              		.cfi_def_cfa_offset 20
 662              		.cfi_offset 4, -20
 663              		.cfi_offset 5, -16
 664              		.cfi_offset 6, -12
 665              		.cfi_offset 7, -8
 666              		.cfi_offset 14, -4
 667 0002 ADF5697D 		sub	sp, sp, #932
 668              		.cfi_def_cfa_offset 952
 669 0006 06AF     		add	r7, sp, #24
 670              		.cfi_def_cfa 7, 928
 648:main.c        ****     uint8 i = 0;
 671              		.loc 1 648 0
 672 0008 0023     		movs	r3, #0
 673 000a 87F88733 		strb	r3, [r7, #903]
 649:main.c        ****     uint16 j = 0;
 674              		.loc 1 649 0
 675 000e 0023     		movs	r3, #0
 676 0010 A7F88433 		strh	r3, [r7, #900]	@ movhi
 650:main.c        ****     struct accel accel_value;
 651:main.c        ****     pid_ts position_pid;
 652:main.c        ****     CyDelay(200u);
 677              		.loc 1 652 0
 678 0014 C820     		movs	r0, #200
 679 0016 FFF7FEFF 		bl	CyDelay
 653:main.c        ****     SPIM_Start();
 680              		.loc 1 653 0
 681 001a FFF7FEFF 		bl	SPIM_Start
 654:main.c        ****     UART_1_Start();
 682              		.loc 1 654 0
 683 001e FFF7FEFF 		bl	UART_1_Start
 655:main.c        ****     //I2C_1_Start();
 656:main.c        ****     Timer_1_Start();
 684              		.loc 1 656 0
 685 0022 FFF7FEFF 		bl	Timer_1_Start
 657:main.c        ****     ShiftReg_1_Start();
 686              		.loc 1 657 0
 687 0026 FFF7FEFF 		bl	ShiftReg_1_Start
 658:main.c        ****     Microstep_Write(SIXTEENTH_STEP);
 688              		.loc 1 658 0
 689 002a 0720     		movs	r0, #7
 690 002c FFF7FEFF 		bl	Microstep_Write
 659:main.c        **** 
 660:main.c        ****     ADC_DelSig_1_Start();
 691              		.loc 1 660 0
 692 0030 FFF7FEFF 		bl	ADC_DelSig_1_Start
 661:main.c        ****     ADC_DelSig_1_StartConvert();
 693              		.loc 1 661 0
 694 0034 FFF7FEFF 		bl	ADC_DelSig_1_StartConvert
 662:main.c        ****     StepDir_Start();
 695              		.loc 1 662 0
 696 0038 FFF7FEFF 		bl	StepDir_Start
 663:main.c        ****     StepDir_Stop();
 697              		.loc 1 663 0
 698 003c FFF7FEFF 		bl	StepDir_Stop
 664:main.c        ****     StepDir_WritePeriod(2000000000);
 699              		.loc 1 664 0
 700 0040 7148     		ldr	r0, .L8
ARM GAS  C:\Users\pajoh\AppData\Local\Temp\cc4PzEGZ.s 			page 25


 701 0042 FFF7FEFF 		bl	StepDir_WritePeriod
 665:main.c        ****     StepDir_Enable();
 702              		.loc 1 665 0
 703 0046 FFF7FEFF 		bl	StepDir_Enable
 666:main.c        **** 
 667:main.c        ****     ACC_Write_buffer[0] = 0x0F;
 704              		.loc 1 667 0
 705 004a 704B     		ldr	r3, .L8+4
 706 004c 0F22     		movs	r2, #15
 707 004e 1A70     		strb	r2, [r3]
 668:main.c        ****     
 669:main.c        ****     read_angle_command |= spiCalcEvenParity(read_angle_command) << 15;
 708              		.loc 1 669 0
 709 0050 6F4B     		ldr	r3, .L8+8
 710 0052 1B88     		ldrh	r3, [r3]	@ movhi
 711 0054 9BB2     		uxth	r3, r3
 712 0056 1846     		mov	r0, r3
 713 0058 FFF7FEFF 		bl	spiCalcEvenParity
 714 005c 0346     		mov	r3, r0
 715 005e DB03     		lsls	r3, r3, #15
 716 0060 1AB2     		sxth	r2, r3
 717 0062 6B4B     		ldr	r3, .L8+8
 718 0064 1B88     		ldrh	r3, [r3]	@ movhi
 719 0066 9BB2     		uxth	r3, r3
 720 0068 1BB2     		sxth	r3, r3
 721 006a 1343     		orrs	r3, r3, r2
 722 006c 1BB2     		sxth	r3, r3
 723 006e 9AB2     		uxth	r2, r3
 724 0070 674B     		ldr	r3, .L8+8
 725 0072 1A80     		strh	r2, [r3]	@ movhi
 670:main.c        ****     angle = angle_update();
 726              		.loc 1 670 0
 727 0074 FFF7FEFF 		bl	angle_update
 728 0078 0346     		mov	r3, r0
 729 007a 1A46     		mov	r2, r3
 730 007c 654B     		ldr	r3, .L8+12
 731 007e 1A60     		str	r2, [r3]
 671:main.c        **** 
 672:main.c        ****     PIDConfig(10,0,0,10000,-10000,100,&position_pid);
 732              		.loc 1 672 0
 733 0080 07F10803 		add	r3, r7, #8
 734 0084 0293     		str	r3, [sp, #8]
 735 0086 6423     		movs	r3, #100
 736 0088 0193     		str	r3, [sp, #4]
 737 008a 634B     		ldr	r3, .L8+16
 738 008c 0093     		str	r3, [sp]
 739 008e 42F21073 		movw	r3, #10000
 740 0092 0022     		movs	r2, #0
 741 0094 0021     		movs	r1, #0
 742 0096 0A20     		movs	r0, #10
 743 0098 FFF7FEFF 		bl	PIDConfig
 673:main.c        ****     
 674:main.c        ****     //SPIM_WriteTxData(read_angle_command);
 675:main.c        ****     //accel initializaton
 676:main.c        ****     //writeRegister8(0x20,0x07);  //enable all axes
 677:main.c        ****     //writeRegister8(0x20, readRegister8(0x20) | (0b0111 << 4)); //400Hz rate
 678:main.c        ****     //writeRegister8(0x23, readRegister8(0x23) | (0b00100000));   //+/-8g range
ARM GAS  C:\Users\pajoh\AppData\Local\Temp\cc4PzEGZ.s 			page 26


 679:main.c        ****     
 680:main.c        ****     //accel_update(&accel_value);
 681:main.c        ****     CyGlobalIntEnable;
 744              		.loc 1 681 0
 745              		.syntax unified
 746              	@ 681 "main.c" 1
 747 009c 62B6     		CPSIE   i
 748              	@ 0 "" 2
 682:main.c        ****     tick_Start();
 749              		.loc 1 682 0
 750              		.thumb
 751              		.syntax unified
 752 009e FFF7FEFF 		bl	tick_Start
 683:main.c        ****     //angle_electric = axis_update(axis_position,angle_update()) * 3200/16384;
 684:main.c        ****     if(ADC_DelSig_1_IsEndConversion(ADC_DelSig_1_WAIT_FOR_RESULT)){
 753              		.loc 1 684 0
 754 00a2 0020     		movs	r0, #0
 755 00a4 FFF7FEFF 		bl	ADC_DelSig_1_IsEndConversion
 756 00a8 0346     		mov	r3, r0
 757 00aa 002B     		cmp	r3, #0
 758 00ac 10D0     		beq	.L2
 685:main.c        ****             position_ref_initial = ADC_DelSig_1_GetResult16();
 759              		.loc 1 685 0
 760 00ae FFF7FEFF 		bl	ADC_DelSig_1_GetResult16
 761 00b2 0346     		mov	r3, r0
 762 00b4 1A46     		mov	r2, r3
 763 00b6 594B     		ldr	r3, .L8+20
 764 00b8 1A60     		str	r2, [r3]
 686:main.c        ****             position_ref_initial = ((position_ref_initial * 2) - 16384);   
 765              		.loc 1 686 0
 766 00ba 584B     		ldr	r3, .L8+20
 767 00bc 1B68     		ldr	r3, [r3]
 768 00be A3F50053 		sub	r3, r3, #8192
 769 00c2 5B00     		lsls	r3, r3, #1
 770 00c4 554A     		ldr	r2, .L8+20
 771 00c6 1360     		str	r3, [r2]
 687:main.c        ****             position_ref_old = position_ref_initial;
 772              		.loc 1 687 0
 773 00c8 544B     		ldr	r3, .L8+20
 774 00ca 1B68     		ldr	r3, [r3]
 775 00cc 544A     		ldr	r2, .L8+24
 776 00ce 1360     		str	r3, [r2]
 777              	.L2:
 688:main.c        ****     }
 689:main.c        **** 
 690:main.c        ****     for(;;)
 691:main.c        ****     {
 692:main.c        ****         if(controller_tick == 1){
 778              		.loc 1 692 0
 779 00d0 544B     		ldr	r3, .L8+28
 780 00d2 1B78     		ldrb	r3, [r3]
 781 00d4 DBB2     		uxtb	r3, r3
 782 00d6 012B     		cmp	r3, #1
 783 00d8 4CD1     		bne	.L3
 693:main.c        ****             Microstep_Write(SIXTEENTH_STEP);
 784              		.loc 1 693 0
 785 00da 0720     		movs	r0, #7
ARM GAS  C:\Users\pajoh\AppData\Local\Temp\cc4PzEGZ.s 			page 27


 786 00dc FFF7FEFF 		bl	Microstep_Write
 694:main.c        ****             angle = angle_update();
 787              		.loc 1 694 0
 788 00e0 FFF7FEFF 		bl	angle_update
 789 00e4 0346     		mov	r3, r0
 790 00e6 1A46     		mov	r2, r3
 791 00e8 4A4B     		ldr	r3, .L8+12
 792 00ea 1A60     		str	r2, [r3]
 695:main.c        **** 
 696:main.c        ****             controller_tick = 0;
 793              		.loc 1 696 0
 794 00ec 4D4B     		ldr	r3, .L8+28
 795 00ee 0022     		movs	r2, #0
 796 00f0 1A70     		strb	r2, [r3]
 697:main.c        ****            
 698:main.c        ****             torque_command = PID(axis_position_filtered_2,position_ref,0,&position_pid);
 797              		.loc 1 698 0
 798 00f2 4D4B     		ldr	r3, .L8+32
 799 00f4 1868     		ldr	r0, [r3]
 800 00f6 4D4B     		ldr	r3, .L8+36
 801 00f8 1968     		ldr	r1, [r3]
 802 00fa 07F10803 		add	r3, r7, #8
 803 00fe 0022     		movs	r2, #0
 804 0100 FFF7FEFF 		bl	PID
 805 0104 0246     		mov	r2, r0
 806 0106 4A4B     		ldr	r3, .L8+40
 807 0108 1A60     		str	r2, [r3]
 699:main.c        ****             
 700:main.c        ****             torque_command = 0;
 808              		.loc 1 700 0
 809 010a 494B     		ldr	r3, .L8+40
 810 010c 0022     		movs	r2, #0
 811 010e 1A60     		str	r2, [r3]
 701:main.c        ****             
 702:main.c        ****             sprintf(transmit_buff,"%ld,%ld,%ld,%ld,%ld,%ld,%ld,%ld\n",position_pid.input,position_p
 812              		.loc 1 702 0
 813 0110 07F10803 		add	r3, r7, #8
 814 0114 1868     		ldr	r0, [r3]
 815 0116 07F10803 		add	r3, r7, #8
 816 011a 5D68     		ldr	r5, [r3, #4]
 817 011c 07F10803 		add	r3, r7, #8
 818 0120 9A68     		ldr	r2, [r3, #8]
 819 0122 07F10803 		add	r3, r7, #8
 820 0126 03F12804 		add	r4, r3, #40
 821 012a D4E90034 		ldrd	r3, [r4]
 822 012e 1E46     		mov	r6, r3
 823 0130 07F10803 		add	r3, r7, #8
 824 0134 03F13004 		add	r4, r3, #48
 825 0138 D4E90034 		ldrd	r3, [r4]
 826 013c 7B60     		str	r3, [r7, #4]
 827 013e 07F10803 		add	r3, r7, #8
 828 0142 03F13804 		add	r4, r3, #56
 829 0146 D4E90034 		ldrd	r3, [r4]
 830 014a 1C46     		mov	r4, r3
 831 014c 394B     		ldr	r3, .L8+44
 832 014e 1B68     		ldr	r3, [r3]
 833 0150 3949     		ldr	r1, .L8+48
ARM GAS  C:\Users\pajoh\AppData\Local\Temp\cc4PzEGZ.s 			page 28


 834 0152 0968     		ldr	r1, [r1]
 835 0154 0591     		str	r1, [sp, #20]
 836 0156 0493     		str	r3, [sp, #16]
 837 0158 0394     		str	r4, [sp, #12]
 838 015a 7B68     		ldr	r3, [r7, #4]
 839 015c 0293     		str	r3, [sp, #8]
 840 015e 0196     		str	r6, [sp, #4]
 841 0160 0092     		str	r2, [sp]
 842 0162 2B46     		mov	r3, r5
 843 0164 0246     		mov	r2, r0
 844 0166 3549     		ldr	r1, .L8+52
 845 0168 3548     		ldr	r0, .L8+56
 846 016a FFF7FEFF 		bl	sprintf
 703:main.c        ****             UART_1_PutString(transmit_buff);
 847              		.loc 1 703 0
 848 016e 3448     		ldr	r0, .L8+56
 849 0170 FFF7FEFF 		bl	UART_1_PutString
 850              	.L3:
 704:main.c        ****             
 705:main.c        ****         }
 706:main.c        ****         //accel_update(&accel_value);
 707:main.c        ****         //angle = angle_update();
 708:main.c        ****         //axis_position = axis_update(axis_position,angle);
 709:main.c        ****         
 710:main.c        ****         
 711:main.c        ****         
 712:main.c        ****         if(ADC_DelSig_1_IsEndConversion(ADC_DelSig_1_WAIT_FOR_RESULT)){
 851              		.loc 1 712 0
 852 0174 0020     		movs	r0, #0
 853 0176 FFF7FEFF 		bl	ADC_DelSig_1_IsEndConversion
 854 017a 0346     		mov	r3, r0
 855 017c 002B     		cmp	r3, #0
 856 017e 0CD0     		beq	.L4
 713:main.c        ****             position_ref = ADC_DelSig_1_GetResult16();
 857              		.loc 1 713 0
 858 0180 FFF7FEFF 		bl	ADC_DelSig_1_GetResult16
 859 0184 0346     		mov	r3, r0
 860 0186 1A46     		mov	r2, r3
 861 0188 284B     		ldr	r3, .L8+36
 862 018a 1A60     		str	r2, [r3]
 714:main.c        ****             position_ref = ((position_ref * 2) - 16384);   
 863              		.loc 1 714 0
 864 018c 274B     		ldr	r3, .L8+36
 865 018e 1B68     		ldr	r3, [r3]
 866 0190 A3F50053 		sub	r3, r3, #8192
 867 0194 5B00     		lsls	r3, r3, #1
 868 0196 254A     		ldr	r2, .L8+36
 869 0198 1360     		str	r3, [r2]
 870              	.L4:
 715:main.c        ****         }
 716:main.c        ****         position_ref = (99 * position_ref_old + 1 * position_ref) / 100;
 871              		.loc 1 716 0
 872 019a 214B     		ldr	r3, .L8+24
 873 019c 1A68     		ldr	r2, [r3]
 874 019e 1346     		mov	r3, r2
 875 01a0 5B00     		lsls	r3, r3, #1
 876 01a2 1344     		add	r3, r3, r2
ARM GAS  C:\Users\pajoh\AppData\Local\Temp\cc4PzEGZ.s 			page 29


 877 01a4 5A01     		lsls	r2, r3, #5
 878 01a6 1A44     		add	r2, r2, r3
 879 01a8 204B     		ldr	r3, .L8+36
 880 01aa 1B68     		ldr	r3, [r3]
 881 01ac 1344     		add	r3, r3, r2
 882 01ae 254A     		ldr	r2, .L8+60
 883 01b0 82FB0312 		smull	r1, r2, r2, r3
 884 01b4 5211     		asrs	r2, r2, #5
 885 01b6 DB17     		asrs	r3, r3, #31
 886 01b8 D31A     		subs	r3, r2, r3
 887 01ba 1C4A     		ldr	r2, .L8+36
 888 01bc 1360     		str	r3, [r2]
 717:main.c        ****         position_ref_old = position_ref;
 889              		.loc 1 717 0
 890 01be 1B4B     		ldr	r3, .L8+36
 891 01c0 1B68     		ldr	r3, [r3]
 892 01c2 174A     		ldr	r2, .L8+24
 893 01c4 1360     		str	r3, [r2]
 718:main.c        ****         
 719:main.c        ****         if(position_ref > (16384*2-100)){
 894              		.loc 1 719 0
 895 01c6 194B     		ldr	r3, .L8+36
 896 01c8 1B68     		ldr	r3, [r3]
 897 01ca 47F69C72 		movw	r2, #32668
 898 01ce 9342     		cmp	r3, r2
 899 01d0 04DD     		ble	.L5
 720:main.c        ****             position_ref = 16384*2 - 100;
 900              		.loc 1 720 0
 901 01d2 164B     		ldr	r3, .L8+36
 902 01d4 47F69C72 		movw	r2, #32668
 903 01d8 1A60     		str	r2, [r3]
 904 01da 07E0     		b	.L6
 905              	.L5:
 721:main.c        ****         }
 722:main.c        ****         else if(position_ref < (-16384*2+100)){
 906              		.loc 1 722 0
 907 01dc 134B     		ldr	r3, .L8+36
 908 01de 1B68     		ldr	r3, [r3]
 909 01e0 194A     		ldr	r2, .L8+64
 910 01e2 9342     		cmp	r3, r2
 911 01e4 02DA     		bge	.L6
 723:main.c        ****             position_ref = -16384*2+100;
 912              		.loc 1 723 0
 913 01e6 114B     		ldr	r3, .L8+36
 914 01e8 174A     		ldr	r2, .L8+64
 915 01ea 1A60     		str	r2, [r3]
 916              	.L6:
 724:main.c        ****         }
 725:main.c        ****         else{
 726:main.c        ****             
 727:main.c        ****         }
 728:main.c        **** //        if(position_ref > 100){
 729:main.c        **** //            position_ref = 40000;  
 730:main.c        **** //        }
 731:main.c        **** //        else if(position_ref < -100){
 732:main.c        **** //            position_ref = 0;
 733:main.c        **** //        }
ARM GAS  C:\Users\pajoh\AppData\Local\Temp\cc4PzEGZ.s 			page 30


 734:main.c        **** 
 735:main.c        **** 
 736:main.c        ****         
 737:main.c        ****         //full step calibration map
 738:main.c        ****         switch_val = sw1_read_Read();
 917              		.loc 1 738 0
 918 01ec FFF7FEFF 		bl	sw1_read_Read
 919 01f0 0346     		mov	r3, r0
 920 01f2 1A46     		mov	r2, r3
 921 01f4 154B     		ldr	r3, .L8+68
 922 01f6 1A70     		strb	r2, [r3]
 739:main.c        ****         if(switch_val == 0 && switch_old == 1){
 923              		.loc 1 739 0
 924 01f8 144B     		ldr	r3, .L8+68
 925 01fa 1B78     		ldrb	r3, [r3]	@ zero_extendqisi2
 926 01fc 002B     		cmp	r3, #0
 740:main.c        **** //            Direction_Write(1);
 741:main.c        **** //    	    Microstep_Write(FULL_STEP);
 742:main.c        **** //            Step_reg_Write(0);
 743:main.c        **** //            Step_reg_Write(2);
 744:main.c        **** //            CyDelay(2);
 745:main.c        **** //            Step_reg_Write(0);
 746:main.c        **** //            CyDelay(100);
 747:main.c        **** //            Direction_Write(0);
 748:main.c        **** //    	    Microstep_Write(FULL_STEP);
 749:main.c        **** //            Step_reg_Write(0);
 750:main.c        **** //            Step_reg_Write(2);
 751:main.c        **** //            CyDelay(2);
 752:main.c        **** //            Step_reg_Write(0);
 753:main.c        **** //            CyDelay(100);
 754:main.c        **** //            for(j = 0; j < 200; j++){
 755:main.c        **** //    			//increment one full step
 756:main.c        **** //    			//wait for 500ms
 757:main.c        **** //    			//take 10 readings, average, output to uart
 758:main.c        **** //    			//increment step count
 759:main.c        **** //                Direction_Write(1);
 760:main.c        **** //    			Microstep_Write(SIXTEENTH_STEP);
 761:main.c        **** //                for(i = 0; i < 16; i++){
 762:main.c        **** //                    Step_reg_Write(0);
 763:main.c        **** //                    CyDelay(2);
 764:main.c        **** //                    Step_reg_Write(2);
 765:main.c        **** //                    CyDelay(2);
 766:main.c        **** //                }
 767:main.c        **** //    			CyDelay(100);
 768:main.c        **** //
 769:main.c        **** //                //flush old angle
 770:main.c        **** //                CyDelay(10);
 771:main.c        **** //                angle_sum = angle_update();
 772:main.c        **** //                CyDelay(10);
 773:main.c        **** //                angle_sum = angle_update();
 774:main.c        **** //                CyDelay(10);
 775:main.c        **** //    			angle_sum = 0;
 776:main.c        **** //    			for(i = 0; i < 100; i++){
 777:main.c        **** //                    angle = angle_update();
 778:main.c        **** //    				angle_sum = angle_sum + angle;
 779:main.c        **** //                    //sprintf(transmit_buff,"i = %d, angle_sum = %ld \n",i,angle);
 780:main.c        **** //                    //UART_1_PutString(transmit_buff);
ARM GAS  C:\Users\pajoh\AppData\Local\Temp\cc4PzEGZ.s 			page 31


 781:main.c        **** //    				CyDelay(1);
 782:main.c        **** //    			}
 783:main.c        **** //    			angle = angle_sum / 100;
 784:main.c        **** //                fullstepMap[j] = angle;
 785:main.c        **** //                //sprintf(transmit_buff,"%d,%ld\n",step_count,angle);
 786:main.c        **** //                //UART_1_PutString(transmit_buff);
 787:main.c        **** //                step_count++;
 788:main.c        **** //            }
 789:main.c        **** //            //linearization map
 790:main.c        **** //            //rotate fullstepMap array to be from low to high
 791:main.c        **** //            min = fullstepMap[0];
 792:main.c        **** //            for(j = 0; j < 200; j++){
 793:main.c        **** //                if(fullstepMap[j] < min){
 794:main.c        **** //                    min = fullstepMap[j];
 795:main.c        **** //                    min_index = j;
 796:main.c        **** //                }
 797:main.c        **** //            }
 798:main.c        **** //            for(j = 0; j < 200; j++){
 799:main.c        **** //                fullstepMapSorted[j] = fullstepMap[(j+min_index)%200];
 800:main.c        **** //                fullstepMapSorted[j] = (min + 1.8 * j * 16384.0 / 360.0) - fullstepMapSorted[j];
 801:main.c        **** //                sprintf(transmit_buff,"%ld,\n",fullstepMapSorted[j]);
 802:main.c        **** //                UART_1_PutString(transmit_buff);
 803:main.c        **** //            }
 804:main.c        **** //            for(j = 0; j < 512; j++){
 805:main.c        **** //                //dont bother with trying to interpolate some strange way
 806:main.c        **** //                //upsample by 256, downsample by 100
 807:main.c        **** //                //128 50
 808:main.c        **** //                //64 25
 809:main.c        **** //                //could do this by scaling points
 810:main.c        **** //                //what does the upsample look like?
 811:main.c        **** //                //for(j = 0; j < 12800; j++){
 812:main.c        **** //                //    upsample[j] = og[(j*25)/64] + ((og[(j*25)/64 + 1] - og[(j*25)/64]) * ((j*25
 813:main.c        **** //                //}
 814:main.c        **** //                //offsetMap[j] = upsample[j*25]
 815:main.c        **** //                //if j < 507
 816:main.c        **** //                offsetMap[j] = fullstepMapSorted[j*25/64];
 817:main.c        **** //                sprintf(transmit_buff,"%d,%ld\n",j,offsetMap[j]);
 818:main.c        **** //                UART_1_PutString(transmit_buff);
 819:main.c        **** //                //else offsetMap[j] = offsetMap[506]
 820:main.c        **** //            }
 821:main.c        **** //            //sprintf(transmit_buff,"int32 offsetMap[512] = {");
 822:main.c        **** //            //UART_1_PutString(transmit_buff);
 823:main.c        **** //            //for(j = 0; j < 511; j++){
 824:main.c        **** //            //    sprintf(transmit_buff,"%ld,\n",offsetMap[j]);   
 825:main.c        **** //            //    UART_1_PutString(transmit_buff);
 826:main.c        **** //            //}
 827:main.c        **** //            //sprintf(transmit_buff,"%ld };",offsetMap[511]);
 828:main.c        **** //            //UART_1_PutString(transmit_buff);
 829:main.c        ****         }
 830:main.c        ****         
 831:main.c        ****         switch_old = switch_val;
 927              		.loc 1 831 0
 928 01fe 134B     		ldr	r3, .L8+68
 929 0200 1A78     		ldrb	r2, [r3]	@ zero_extendqisi2
 930 0202 134B     		ldr	r3, .L8+72
 931 0204 1A70     		strb	r2, [r3]
 832:main.c        **** //        sprintf(transmit_buff,"%ld\n",angle_update());
ARM GAS  C:\Users\pajoh\AppData\Local\Temp\cc4PzEGZ.s 			page 32


 833:main.c        **** //        UART_1_PutString(transmit_buff);
 834:main.c        **** //        ShiftReg_1_Stop();
 835:main.c        **** //        ShiftReg_1_WriteRegValue(0x00AA);
 836:main.c        **** //        ShiftReg_1_Enable();
 837:main.c        **** 
 838:main.c        ****     }
 932              		.loc 1 838 0
 933 0206 63E7     		b	.L2
 934              	.L9:
 935              		.align	2
 936              	.L8:
 937 0208 00943577 		.word	2000000000
 938 020c 00000000 		.word	ACC_Write_buffer
 939 0210 00000000 		.word	read_angle_command
 940 0214 00000000 		.word	angle
 941 0218 F0D8FFFF 		.word	-10000
 942 021c 00000000 		.word	position_ref_initial
 943 0220 00000000 		.word	position_ref_old
 944 0224 00000000 		.word	controller_tick
 945 0228 00000000 		.word	axis_position_filtered_2
 946 022c 00000000 		.word	position_ref
 947 0230 00000000 		.word	torque_command
 948 0234 00000000 		.word	angle_diff
 949 0238 00000000 		.word	lead_angle
 950 023c 00000000 		.word	.LC0
 951 0240 00000000 		.word	transmit_buff
 952 0244 1F85EB51 		.word	1374389535
 953 0248 6480FFFF 		.word	-32668
 954 024c 00000000 		.word	switch_val
 955 0250 00000000 		.word	switch_old
 956              		.cfi_endproc
 957              	.LFE64:
 958              		.size	main, .-main
 959              		.section	.text.spiCalcEvenParity,"ax",%progbits
 960              		.align	2
 961              		.global	spiCalcEvenParity
 962              		.thumb
 963              		.thumb_func
 964              		.type	spiCalcEvenParity, %function
 965              	spiCalcEvenParity:
 966              	.LFB65:
 839:main.c        **** }
 840:main.c        **** 
 841:main.c        **** uint8 spiCalcEvenParity(uint16 value)
 842:main.c        **** {
 967              		.loc 1 842 0
 968              		.cfi_startproc
 969              		@ args = 0, pretend = 0, frame = 16
 970              		@ frame_needed = 1, uses_anonymous_args = 0
 971              		@ link register save eliminated.
 972 0000 80B4     		push	{r7}
 973              		.cfi_def_cfa_offset 4
 974              		.cfi_offset 7, -4
 975 0002 85B0     		sub	sp, sp, #20
 976              		.cfi_def_cfa_offset 24
 977 0004 00AF     		add	r7, sp, #0
 978              		.cfi_def_cfa_register 7
ARM GAS  C:\Users\pajoh\AppData\Local\Temp\cc4PzEGZ.s 			page 33


 979 0006 0346     		mov	r3, r0
 980 0008 FB80     		strh	r3, [r7, #6]	@ movhi
 843:main.c        ****     uint8 cnt = 0;
 981              		.loc 1 843 0
 982 000a 0023     		movs	r3, #0
 983 000c FB73     		strb	r3, [r7, #15]
 844:main.c        ****     uint8 i;
 845:main.c        ****     for (i = 0; i < 16; i++)
 984              		.loc 1 845 0
 985 000e 0023     		movs	r3, #0
 986 0010 BB73     		strb	r3, [r7, #14]
 987 0012 0DE0     		b	.L11
 988              	.L13:
 846:main.c        ****     {
 847:main.c        ****         if (value & 0x1)
 989              		.loc 1 847 0
 990 0014 FB88     		ldrh	r3, [r7, #6]
 991 0016 03F00103 		and	r3, r3, #1
 992 001a 002B     		cmp	r3, #0
 993 001c 02D0     		beq	.L12
 848:main.c        ****         {
 849:main.c        ****         cnt++;
 994              		.loc 1 849 0
 995 001e FB7B     		ldrb	r3, [r7, #15]	@ zero_extendqisi2
 996 0020 0133     		adds	r3, r3, #1
 997 0022 FB73     		strb	r3, [r7, #15]
 998              	.L12:
 850:main.c        ****         }
 851:main.c        ****     value >>= 1;
 999              		.loc 1 851 0 discriminator 2
 1000 0024 FB88     		ldrh	r3, [r7, #6]
 1001 0026 5B08     		lsrs	r3, r3, #1
 1002 0028 FB80     		strh	r3, [r7, #6]	@ movhi
 845:main.c        ****     {
 1003              		.loc 1 845 0 discriminator 2
 1004 002a BB7B     		ldrb	r3, [r7, #14]	@ zero_extendqisi2
 1005 002c 0133     		adds	r3, r3, #1
 1006 002e BB73     		strb	r3, [r7, #14]
 1007              	.L11:
 845:main.c        ****     {
 1008              		.loc 1 845 0 is_stmt 0 discriminator 1
 1009 0030 BB7B     		ldrb	r3, [r7, #14]	@ zero_extendqisi2
 1010 0032 0F2B     		cmp	r3, #15
 1011 0034 EED9     		bls	.L13
 852:main.c        ****     }
 853:main.c        ****     return cnt & 0x1;
 1012              		.loc 1 853 0 is_stmt 1
 1013 0036 FB7B     		ldrb	r3, [r7, #15]
 1014 0038 03F00103 		and	r3, r3, #1
 1015 003c DBB2     		uxtb	r3, r3
 854:main.c        **** }
 1016              		.loc 1 854 0
 1017 003e 1846     		mov	r0, r3
 1018 0040 1437     		adds	r7, r7, #20
 1019              		.cfi_def_cfa_offset 4
 1020 0042 BD46     		mov	sp, r7
 1021              		.cfi_def_cfa_register 13
ARM GAS  C:\Users\pajoh\AppData\Local\Temp\cc4PzEGZ.s 			page 34


 1022              		@ sp needed
 1023 0044 80BC     		pop	{r7}
 1024              		.cfi_restore 7
 1025              		.cfi_def_cfa_offset 0
 1026 0046 7047     		bx	lr
 1027              		.cfi_endproc
 1028              	.LFE65:
 1029              		.size	spiCalcEvenParity, .-spiCalcEvenParity
 1030              		.section	.text.writeRegister8,"ax",%progbits
 1031              		.align	2
 1032              		.global	writeRegister8
 1033              		.thumb
 1034              		.thumb_func
 1035              		.type	writeRegister8, %function
 1036              	writeRegister8:
 1037              	.LFB66:
 855:main.c        **** 
 856:main.c        **** void writeRegister8(uint8 reg, uint8 val){
 1038              		.loc 1 856 0
 1039              		.cfi_startproc
 1040              		@ args = 0, pretend = 0, frame = 8
 1041              		@ frame_needed = 1, uses_anonymous_args = 0
 1042 0000 80B5     		push	{r7, lr}
 1043              		.cfi_def_cfa_offset 8
 1044              		.cfi_offset 7, -8
 1045              		.cfi_offset 14, -4
 1046 0002 82B0     		sub	sp, sp, #8
 1047              		.cfi_def_cfa_offset 16
 1048 0004 00AF     		add	r7, sp, #0
 1049              		.cfi_def_cfa_register 7
 1050 0006 0346     		mov	r3, r0
 1051 0008 0A46     		mov	r2, r1
 1052 000a FB71     		strb	r3, [r7, #7]
 1053 000c 1346     		mov	r3, r2
 1054 000e BB71     		strb	r3, [r7, #6]
 857:main.c        ****     I2C_1_MasterSendStart(LIS3DH_ADDRESS,I2C_1_WRITE_XFER_MODE);
 1055              		.loc 1 857 0
 1056 0010 0021     		movs	r1, #0
 1057 0012 1820     		movs	r0, #24
 1058 0014 FFF7FEFF 		bl	I2C_1_MasterSendStart
 858:main.c        ****     I2C_1_MasterWriteByte(reg);
 1059              		.loc 1 858 0
 1060 0018 FB79     		ldrb	r3, [r7, #7]	@ zero_extendqisi2
 1061 001a 1846     		mov	r0, r3
 1062 001c FFF7FEFF 		bl	I2C_1_MasterWriteByte
 859:main.c        ****     I2C_1_MasterWriteByte(val);    //enable all axes, normal mode
 1063              		.loc 1 859 0
 1064 0020 BB79     		ldrb	r3, [r7, #6]	@ zero_extendqisi2
 1065 0022 1846     		mov	r0, r3
 1066 0024 FFF7FEFF 		bl	I2C_1_MasterWriteByte
 860:main.c        ****     I2C_1_MasterSendStop();
 1067              		.loc 1 860 0
 1068 0028 FFF7FEFF 		bl	I2C_1_MasterSendStop
 861:main.c        **** }
 1069              		.loc 1 861 0
 1070 002c 00BF     		nop
 1071 002e 0837     		adds	r7, r7, #8
ARM GAS  C:\Users\pajoh\AppData\Local\Temp\cc4PzEGZ.s 			page 35


 1072              		.cfi_def_cfa_offset 8
 1073 0030 BD46     		mov	sp, r7
 1074              		.cfi_def_cfa_register 13
 1075              		@ sp needed
 1076 0032 80BD     		pop	{r7, pc}
 1077              		.cfi_endproc
 1078              	.LFE66:
 1079              		.size	writeRegister8, .-writeRegister8
 1080              		.section	.text.readRegister8,"ax",%progbits
 1081              		.align	2
 1082              		.global	readRegister8
 1083              		.thumb
 1084              		.thumb_func
 1085              		.type	readRegister8, %function
 1086              	readRegister8:
 1087              	.LFB67:
 862:main.c        **** 
 863:main.c        **** uint8 readRegister8(uint8 reg){
 1088              		.loc 1 863 0
 1089              		.cfi_startproc
 1090              		@ args = 0, pretend = 0, frame = 16
 1091              		@ frame_needed = 1, uses_anonymous_args = 0
 1092 0000 80B5     		push	{r7, lr}
 1093              		.cfi_def_cfa_offset 8
 1094              		.cfi_offset 7, -8
 1095              		.cfi_offset 14, -4
 1096 0002 84B0     		sub	sp, sp, #16
 1097              		.cfi_def_cfa_offset 24
 1098 0004 00AF     		add	r7, sp, #0
 1099              		.cfi_def_cfa_register 7
 1100 0006 0346     		mov	r3, r0
 1101 0008 FB71     		strb	r3, [r7, #7]
 864:main.c        ****     uint8 read;
 865:main.c        ****     I2C_1_MasterSendStart(LIS3DH_ADDRESS,I2C_1_WRITE_XFER_MODE);
 1102              		.loc 1 865 0
 1103 000a 0021     		movs	r1, #0
 1104 000c 1820     		movs	r0, #24
 1105 000e FFF7FEFF 		bl	I2C_1_MasterSendStart
 866:main.c        ****     I2C_1_MasterWriteByte(reg);
 1106              		.loc 1 866 0
 1107 0012 FB79     		ldrb	r3, [r7, #7]	@ zero_extendqisi2
 1108 0014 1846     		mov	r0, r3
 1109 0016 FFF7FEFF 		bl	I2C_1_MasterWriteByte
 867:main.c        ****     I2C_1_MasterSendStop();
 1110              		.loc 1 867 0
 1111 001a FFF7FEFF 		bl	I2C_1_MasterSendStop
 868:main.c        ****     
 869:main.c        ****     I2C_1_MasterSendStart(LIS3DH_ADDRESS,I2C_1_READ_XFER_MODE);
 1112              		.loc 1 869 0
 1113 001e 0121     		movs	r1, #1
 1114 0020 1820     		movs	r0, #24
 1115 0022 FFF7FEFF 		bl	I2C_1_MasterSendStart
 870:main.c        ****     read = I2C_1_MasterReadByte(I2C_1_NAK_DATA);
 1116              		.loc 1 870 0
 1117 0026 0020     		movs	r0, #0
 1118 0028 FFF7FEFF 		bl	I2C_1_MasterReadByte
 1119 002c 0346     		mov	r3, r0
ARM GAS  C:\Users\pajoh\AppData\Local\Temp\cc4PzEGZ.s 			page 36


 1120 002e FB73     		strb	r3, [r7, #15]
 871:main.c        ****     I2C_1_MasterSendStop();
 1121              		.loc 1 871 0
 1122 0030 FFF7FEFF 		bl	I2C_1_MasterSendStop
 872:main.c        ****     return read;
 1123              		.loc 1 872 0
 1124 0034 FB7B     		ldrb	r3, [r7, #15]	@ zero_extendqisi2
 873:main.c        **** }
 1125              		.loc 1 873 0
 1126 0036 1846     		mov	r0, r3
 1127 0038 1037     		adds	r7, r7, #16
 1128              		.cfi_def_cfa_offset 8
 1129 003a BD46     		mov	sp, r7
 1130              		.cfi_def_cfa_register 13
 1131              		@ sp needed
 1132 003c 80BD     		pop	{r7, pc}
 1133              		.cfi_endproc
 1134              	.LFE67:
 1135              		.size	readRegister8, .-readRegister8
 1136 003e 00BF     		.section	.text.axis_update,"ax",%progbits
 1137              		.align	2
 1138              		.global	axis_update
 1139              		.thumb
 1140              		.thumb_func
 1141              		.type	axis_update, %function
 1142              	axis_update:
 1143              	.LFB68:
 874:main.c        **** 
 875:main.c        **** int32 axis_update(int32 axis, int32 angle){
 1144              		.loc 1 875 0
 1145              		.cfi_startproc
 1146              		@ args = 0, pretend = 0, frame = 16
 1147              		@ frame_needed = 1, uses_anonymous_args = 0
 1148              		@ link register save eliminated.
 1149 0000 80B4     		push	{r7}
 1150              		.cfi_def_cfa_offset 4
 1151              		.cfi_offset 7, -4
 1152 0002 85B0     		sub	sp, sp, #20
 1153              		.cfi_def_cfa_offset 24
 1154 0004 00AF     		add	r7, sp, #0
 1155              		.cfi_def_cfa_register 7
 1156 0006 7860     		str	r0, [r7, #4]
 1157 0008 3960     		str	r1, [r7]
 876:main.c        ****     static int32 angle_old;
 877:main.c        ****     int32 axis_position;
 878:main.c        ****     if(angle - angle_old > 10000){
 1158              		.loc 1 878 0
 1159 000a 204B     		ldr	r3, .L24
 1160 000c 1B68     		ldr	r3, [r3]
 1161 000e 3A68     		ldr	r2, [r7]
 1162 0010 D31A     		subs	r3, r2, r3
 1163 0012 42F21072 		movw	r2, #10000
 1164 0016 9342     		cmp	r3, r2
 1165 0018 09DD     		ble	.L19
 879:main.c        ****         //angle decreasing, crossed over 0
 880:main.c        ****         axis_position = axis + (angle - (angle_old + 16384));
 1166              		.loc 1 880 0
ARM GAS  C:\Users\pajoh\AppData\Local\Temp\cc4PzEGZ.s 			page 37


 1167 001a 1C4B     		ldr	r3, .L24
 1168 001c 1B68     		ldr	r3, [r3]
 1169 001e 03F58043 		add	r3, r3, #16384
 1170 0022 3A68     		ldr	r2, [r7]
 1171 0024 D21A     		subs	r2, r2, r3
 1172 0026 7B68     		ldr	r3, [r7, #4]
 1173 0028 1344     		add	r3, r3, r2
 1174 002a FB60     		str	r3, [r7, #12]
 1175 002c 22E0     		b	.L20
 1176              	.L19:
 881:main.c        ****     }
 882:main.c        ****     else if(angle - angle_old < -10000){
 1177              		.loc 1 882 0
 1178 002e 174B     		ldr	r3, .L24
 1179 0030 1B68     		ldr	r3, [r3]
 1180 0032 3A68     		ldr	r2, [r7]
 1181 0034 D31A     		subs	r3, r2, r3
 1182 0036 164A     		ldr	r2, .L24+4
 1183 0038 9342     		cmp	r3, r2
 1184 003a 14DA     		bge	.L21
 883:main.c        ****         //angle increasing, crossed over 0
 884:main.c        ****         axis_position = axis + ((angle - angle_old) + 16384) % 16384;
 1185              		.loc 1 884 0
 1186 003c 134B     		ldr	r3, .L24
 1187 003e 1B68     		ldr	r3, [r3]
 1188 0040 3A68     		ldr	r2, [r7]
 1189 0042 D31A     		subs	r3, r2, r3
 1190 0044 03F58042 		add	r2, r3, #16384
 1191 0048 124B     		ldr	r3, .L24+8
 1192 004a 1340     		ands	r3, r3, r2
 1193 004c 002B     		cmp	r3, #0
 1194 004e 05DA     		bge	.L22
 1195 0050 013B     		subs	r3, r3, #1
 1196 0052 6FEA8343 		mvn	r3, r3, lsl #18
 1197 0056 6FEA9343 		mvn	r3, r3, lsr #18
 1198 005a 0133     		adds	r3, r3, #1
 1199              	.L22:
 1200 005c 1A46     		mov	r2, r3
 1201 005e 7B68     		ldr	r3, [r7, #4]
 1202 0060 1344     		add	r3, r3, r2
 1203 0062 FB60     		str	r3, [r7, #12]
 1204 0064 06E0     		b	.L20
 1205              	.L21:
 885:main.c        ****     }
 886:main.c        ****     else{
 887:main.c        ****         axis_position = axis + angle - angle_old;
 1206              		.loc 1 887 0
 1207 0066 7A68     		ldr	r2, [r7, #4]
 1208 0068 3B68     		ldr	r3, [r7]
 1209 006a 1A44     		add	r2, r2, r3
 1210 006c 074B     		ldr	r3, .L24
 1211 006e 1B68     		ldr	r3, [r3]
 1212 0070 D31A     		subs	r3, r2, r3
 1213 0072 FB60     		str	r3, [r7, #12]
 1214              	.L20:
 888:main.c        ****     }
 889:main.c        ****     angle_old = angle;
ARM GAS  C:\Users\pajoh\AppData\Local\Temp\cc4PzEGZ.s 			page 38


 1215              		.loc 1 889 0
 1216 0074 054A     		ldr	r2, .L24
 1217 0076 3B68     		ldr	r3, [r7]
 1218 0078 1360     		str	r3, [r2]
 890:main.c        ****     angle_old = angle;
 1219              		.loc 1 890 0
 1220 007a 044A     		ldr	r2, .L24
 1221 007c 3B68     		ldr	r3, [r7]
 1222 007e 1360     		str	r3, [r2]
 891:main.c        ****     return axis;
 1223              		.loc 1 891 0
 1224 0080 7B68     		ldr	r3, [r7, #4]
 892:main.c        **** }
 1225              		.loc 1 892 0
 1226 0082 1846     		mov	r0, r3
 1227 0084 1437     		adds	r7, r7, #20
 1228              		.cfi_def_cfa_offset 4
 1229 0086 BD46     		mov	sp, r7
 1230              		.cfi_def_cfa_register 13
 1231              		@ sp needed
 1232 0088 80BC     		pop	{r7}
 1233              		.cfi_restore 7
 1234              		.cfi_def_cfa_offset 0
 1235 008a 7047     		bx	lr
 1236              	.L25:
 1237              		.align	2
 1238              	.L24:
 1239 008c 20000000 		.word	angle_old.7324
 1240 0090 F0D8FFFF 		.word	-10000
 1241 0094 FF3F0080 		.word	-2147467265
 1242              		.cfi_endproc
 1243              	.LFE68:
 1244              		.size	axis_update, .-axis_update
 1245              		.section	.text.accel_update,"ax",%progbits
 1246              		.align	2
 1247              		.global	accel_update
 1248              		.thumb
 1249              		.thumb_func
 1250              		.type	accel_update, %function
 1251              	accel_update:
 1252              	.LFB69:
 893:main.c        **** 
 894:main.c        **** void accel_update(struct accel * acc_struct){
 1253              		.loc 1 894 0
 1254              		.cfi_startproc
 1255              		@ args = 0, pretend = 0, frame = 8
 1256              		@ frame_needed = 1, uses_anonymous_args = 0
 1257 0000 80B5     		push	{r7, lr}
 1258              		.cfi_def_cfa_offset 8
 1259              		.cfi_offset 7, -8
 1260              		.cfi_offset 14, -4
 1261 0002 82B0     		sub	sp, sp, #8
 1262              		.cfi_def_cfa_offset 16
 1263 0004 00AF     		add	r7, sp, #0
 1264              		.cfi_def_cfa_register 7
 1265 0006 7860     		str	r0, [r7, #4]
 895:main.c        ****     //acc_struct->accel_x = readRegister8(0x28);
ARM GAS  C:\Users\pajoh\AppData\Local\Temp\cc4PzEGZ.s 			page 39


 896:main.c        ****     //acc_struct->accel_x |= (readRegister8(0x29) << 8);
 897:main.c        ****     acc_struct->accel_y = readRegister8(0x2A);
 1266              		.loc 1 897 0
 1267 0008 2A20     		movs	r0, #42
 1268 000a FFF7FEFF 		bl	readRegister8
 1269 000e 0346     		mov	r3, r0
 1270 0010 1AB2     		sxth	r2, r3
 1271 0012 7B68     		ldr	r3, [r7, #4]
 1272 0014 5A80     		strh	r2, [r3, #2]	@ movhi
 898:main.c        ****     acc_struct->accel_y |= (readRegister8(0x2B) << 8);
 1273              		.loc 1 898 0
 1274 0016 2B20     		movs	r0, #43
 1275 0018 FFF7FEFF 		bl	readRegister8
 1276 001c 0346     		mov	r3, r0
 1277 001e 1902     		lsls	r1, r3, #8
 1278 0020 7B68     		ldr	r3, [r7, #4]
 1279 0022 B3F90220 		ldrsh	r2, [r3, #2]
 1280 0026 0BB2     		sxth	r3, r1
 1281 0028 1343     		orrs	r3, r3, r2
 1282 002a 1AB2     		sxth	r2, r3
 1283 002c 7B68     		ldr	r3, [r7, #4]
 1284 002e 5A80     		strh	r2, [r3, #2]	@ movhi
 899:main.c        ****     //acc_struct->accel_z = readRegister8(0x2C);
 900:main.c        ****     //acc_struct->accel_z |= (readRegister8(0x2D) << 8);  
 901:main.c        ****     return;
 1285              		.loc 1 901 0
 1286 0030 00BF     		nop
 902:main.c        **** }
 1287              		.loc 1 902 0
 1288 0032 0837     		adds	r7, r7, #8
 1289              		.cfi_def_cfa_offset 8
 1290 0034 BD46     		mov	sp, r7
 1291              		.cfi_def_cfa_register 13
 1292              		@ sp needed
 1293 0036 80BD     		pop	{r7, pc}
 1294              		.cfi_endproc
 1295              	.LFE69:
 1296              		.size	accel_update, .-accel_update
 1297              		.section	.text.angle_update,"ax",%progbits
 1298              		.align	2
 1299              		.global	angle_update
 1300              		.thumb
 1301              		.thumb_func
 1302              		.type	angle_update, %function
 1303              	angle_update:
 1304              	.LFB70:
 903:main.c        **** 
 904:main.c        **** uint32 angle_update(void){
 1305              		.loc 1 904 0
 1306              		.cfi_startproc
 1307              		@ args = 0, pretend = 0, frame = 0
 1308              		@ frame_needed = 1, uses_anonymous_args = 0
 1309              		@ link register save eliminated.
 1310 0000 80B4     		push	{r7}
 1311              		.cfi_def_cfa_offset 4
 1312              		.cfi_offset 7, -4
 1313 0002 00AF     		add	r7, sp, #0
ARM GAS  C:\Users\pajoh\AppData\Local\Temp\cc4PzEGZ.s 			page 40


 1314              		.cfi_def_cfa_register 7
 905:main.c        ****     //int32 angle;
 906:main.c        ****     //SPIM_WriteTxData(read_angle_command);
 907:main.c        ****     //if(SPIM_GetRxBufferSize() != 0){
 908:main.c        ****     //    angle = SPIM_ReadRxData() & 0x3FFF; //((SPIM_ReadRxData() & 0x3FFF) * 3600)/16384;
 909:main.c        ****     //}
 910:main.c        ****     return angle;
 1315              		.loc 1 910 0
 1316 0004 024B     		ldr	r3, .L30
 1317 0006 1B68     		ldr	r3, [r3]
 911:main.c        **** }
 1318              		.loc 1 911 0
 1319 0008 1846     		mov	r0, r3
 1320 000a BD46     		mov	sp, r7
 1321              		.cfi_def_cfa_register 13
 1322              		@ sp needed
 1323 000c 80BC     		pop	{r7}
 1324              		.cfi_restore 7
 1325              		.cfi_def_cfa_offset 0
 1326 000e 7047     		bx	lr
 1327              	.L31:
 1328              		.align	2
 1329              	.L30:
 1330 0010 00000000 		.word	angle
 1331              		.cfi_endproc
 1332              	.LFE70:
 1333              		.size	angle_update, .-angle_update
 1334              		.section	.text.accel_offset_update,"ax",%progbits
 1335              		.align	2
 1336              		.global	accel_offset_update
 1337              		.thumb
 1338              		.thumb_func
 1339              		.type	accel_offset_update, %function
 1340              	accel_offset_update:
 1341              	.LFB71:
 912:main.c        **** 
 913:main.c        **** void accel_offset_update(struct accel * acc_struct){
 1342              		.loc 1 913 0
 1343              		.cfi_startproc
 1344              		@ args = 0, pretend = 0, frame = 8
 1345              		@ frame_needed = 1, uses_anonymous_args = 0
 1346              		@ link register save eliminated.
 1347 0000 80B4     		push	{r7}
 1348              		.cfi_def_cfa_offset 4
 1349              		.cfi_offset 7, -4
 1350 0002 83B0     		sub	sp, sp, #12
 1351              		.cfi_def_cfa_offset 16
 1352 0004 00AF     		add	r7, sp, #0
 1353              		.cfi_def_cfa_register 7
 1354 0006 7860     		str	r0, [r7, #4]
 914:main.c        ****     
 915:main.c        **** //    acc_struct->x_sum -= acc_struct->x_buffer[acc_struct->x_index];
 916:main.c        **** //    acc_struct->x_buffer[acc_struct->x_index] = acc_struct->accel_x;
 917:main.c        **** //    acc_struct->x_sum += acc_struct->x_buffer[acc_struct->x_index];
 918:main.c        **** //    acc_struct->x_index = (acc_struct->x_index + 1) % 128;
 919:main.c        **** //    acc_struct->x_offset = acc_struct->x_sum / 128;
 920:main.c        **** //    
ARM GAS  C:\Users\pajoh\AppData\Local\Temp\cc4PzEGZ.s 			page 41


 921:main.c        **** //    acc_struct->y_sum -= acc_struct->y_buffer[acc_struct->y_index];
 922:main.c        **** //    acc_struct->y_buffer[acc_struct->y_index] = acc_struct->accel_y;
 923:main.c        **** //    acc_struct->y_sum += acc_struct->y_buffer[acc_struct->y_index];
 924:main.c        **** //    acc_struct->y_index = (acc_struct->y_index + 1) % 128;
 925:main.c        **** //    acc_struct->y_offset = acc_struct->y_sum / 128;
 926:main.c        **** //    
 927:main.c        **** //    acc_struct->z_sum -= acc_struct->z_buffer[acc_struct->z_index];
 928:main.c        **** //    acc_struct->z_buffer[acc_struct->z_index] = acc_struct->accel_z;
 929:main.c        **** //    acc_struct->z_sum += acc_struct->z_buffer[acc_struct->z_index];
 930:main.c        **** //    acc_struct->z_index = (acc_struct->z_index + 1) % 128;
 931:main.c        **** //    acc_struct->z_offset = acc_struct->z_sum / 128;
 932:main.c        ****     acc_struct->y_offset = (acc_struct->y_offset * 120 + acc_struct->accel_y * 8)/128;
 1355              		.loc 1 932 0
 1356 0008 7B68     		ldr	r3, [r7, #4]
 1357 000a B3F90830 		ldrsh	r3, [r3, #8]
 1358 000e 1A46     		mov	r2, r3
 1359 0010 1346     		mov	r3, r2
 1360 0012 1B01     		lsls	r3, r3, #4
 1361 0014 9B1A     		subs	r3, r3, r2
 1362 0016 7A68     		ldr	r2, [r7, #4]
 1363 0018 B2F90220 		ldrsh	r2, [r2, #2]
 1364 001c 1344     		add	r3, r3, r2
 1365 001e DB00     		lsls	r3, r3, #3
 1366 0020 002B     		cmp	r3, #0
 1367 0022 00DA     		bge	.L33
 1368 0024 7F33     		adds	r3, r3, #127
 1369              	.L33:
 1370 0026 DB11     		asrs	r3, r3, #7
 1371 0028 1AB2     		sxth	r2, r3
 1372 002a 7B68     		ldr	r3, [r7, #4]
 1373 002c 1A81     		strh	r2, [r3, #8]	@ movhi
 933:main.c        **** }
 1374              		.loc 1 933 0
 1375 002e 00BF     		nop
 1376 0030 0C37     		adds	r7, r7, #12
 1377              		.cfi_def_cfa_offset 4
 1378 0032 BD46     		mov	sp, r7
 1379              		.cfi_def_cfa_register 13
 1380              		@ sp needed
 1381 0034 80BC     		pop	{r7}
 1382              		.cfi_restore 7
 1383              		.cfi_def_cfa_offset 0
 1384 0036 7047     		bx	lr
 1385              		.cfi_endproc
 1386              	.LFE71:
 1387              		.size	accel_offset_update, .-accel_offset_update
 1388              		.bss
 1389 001f 00       		.align	2
 1390              	angle_old.7324:
 1391 0020 00000000 		.space	4
 1392              		.text
 1393              	.Letext0:
 1394              		.file 2 "c:\\program files (x86)\\cypress\\psoc creator\\4.2\\psoc creator\\import\\gnu\\arm\\5.4.
 1395              		.file 3 "c:\\program files (x86)\\cypress\\psoc creator\\4.2\\psoc creator\\import\\gnu\\arm\\5.4.
 1396              		.file 4 "Generated_Source\\PSoC5/cytypes.h"
 1397              		.file 5 "pid.h"
 1398              		.file 6 "Generated_Source\\PSoC5/core_cm3.h"
ARM GAS  C:\Users\pajoh\AppData\Local\Temp\cc4PzEGZ.s 			page 42

