ARM GAS  C:\Users\pajoh\AppData\Local\Temp\ccOLwa0b.s 			page 1


   1              		.syntax unified
   2              		.cpu cortex-m3
   3              		.fpu softvfp
   4              		.eabi_attribute 20, 1
   5              		.eabi_attribute 21, 1
   6              		.eabi_attribute 23, 3
   7              		.eabi_attribute 24, 1
   8              		.eabi_attribute 25, 1
   9              		.eabi_attribute 26, 1
  10              		.eabi_attribute 30, 6
  11              		.eabi_attribute 34, 1
  12              		.eabi_attribute 18, 4
  13              		.thumb
  14              		.syntax unified
  15              		.file	"pid.c"
  16              		.text
  17              	.Ltext0:
  18              		.cfi_sections	.debug_frame
  19              		.section	.text.PIDConfig,"ax",%progbits
  20              		.align	2
  21              		.global	PIDConfig
  22              		.thumb
  23              		.thumb_func
  24              		.type	PIDConfig, %function
  25              	PIDConfig:
  26              	.LFB1:
  27              		.file 1 "pid.c"
   1:pid.c         **** /* ========================================
   2:pid.c         ****  *
   3:pid.c         ****  * Copyright YOUR COMPANY, THE YEAR
   4:pid.c         ****  * All Rights Reserved
   5:pid.c         ****  * UNPUBLISHED, LICENSED SOFTWARE.
   6:pid.c         ****  *
   7:pid.c         ****  * CONFIDENTIAL AND PROPRIETARY INFORMATION
   8:pid.c         ****  * WHICH IS THE PROPERTY OF your company.
   9:pid.c         ****  *
  10:pid.c         ****  * ========================================
  11:pid.c         **** */
  12:pid.c         **** #include "pid.h"
  13:pid.c         **** #include "stdio.h"
  14:pid.c         **** #include "CyLib.h"
  15:pid.c         **** 
  16:pid.c         **** int8 PIDConfig(int32 kp, int32 ki, int32 kd, int32 i_limit_pos, int32 i_limit_neg, int32 fs, pid_ts
  28              		.loc 1 16 0
  29              		.cfi_startproc
  30              		@ args = 12, pretend = 0, frame = 16
  31              		@ frame_needed = 1, uses_anonymous_args = 0
  32              		@ link register save eliminated.
  33 0000 90B4     		push	{r4, r7}
  34              		.cfi_def_cfa_offset 8
  35              		.cfi_offset 4, -8
  36              		.cfi_offset 7, -4
  37 0002 84B0     		sub	sp, sp, #16
  38              		.cfi_def_cfa_offset 24
  39 0004 00AF     		add	r7, sp, #0
  40              		.cfi_def_cfa_register 7
  41 0006 F860     		str	r0, [r7, #12]
ARM GAS  C:\Users\pajoh\AppData\Local\Temp\ccOLwa0b.s 			page 2


  42 0008 B960     		str	r1, [r7, #8]
  43 000a 7A60     		str	r2, [r7, #4]
  44 000c 3B60     		str	r3, [r7]
  17:pid.c         ****     PID->kp = kp;
  45              		.loc 1 17 0
  46 000e 3B6A     		ldr	r3, [r7, #32]
  47 0010 FA68     		ldr	r2, [r7, #12]
  48 0012 1A61     		str	r2, [r3, #16]
  18:pid.c         ****     PID->ki = ki;
  49              		.loc 1 18 0
  50 0014 3B6A     		ldr	r3, [r7, #32]
  51 0016 BA68     		ldr	r2, [r7, #8]
  52 0018 5A61     		str	r2, [r3, #20]
  19:pid.c         ****     PID->kd = kd;
  53              		.loc 1 19 0
  54 001a 3B6A     		ldr	r3, [r7, #32]
  55 001c 7A68     		ldr	r2, [r7, #4]
  56 001e 9A61     		str	r2, [r3, #24]
  20:pid.c         ****     PID->i_limit_pos = i_limit_pos;
  57              		.loc 1 20 0
  58 0020 3B6A     		ldr	r3, [r7, #32]
  59 0022 3A68     		ldr	r2, [r7]
  60 0024 DA61     		str	r2, [r3, #28]
  21:pid.c         ****     PID->i_limit_neg = i_limit_neg;
  61              		.loc 1 21 0
  62 0026 3B6A     		ldr	r3, [r7, #32]
  63 0028 BA69     		ldr	r2, [r7, #24]
  64 002a 1A62     		str	r2, [r3, #32]
  22:pid.c         ****     PID->fs = fs;
  65              		.loc 1 22 0
  66 002c 3B6A     		ldr	r3, [r7, #32]
  67 002e FA69     		ldr	r2, [r7, #28]
  68 0030 1A64     		str	r2, [r3, #64]
  23:pid.c         ****     PID->setpoint = 0;
  69              		.loc 1 23 0
  70 0032 3B6A     		ldr	r3, [r7, #32]
  71 0034 0022     		movs	r2, #0
  72 0036 5A60     		str	r2, [r3, #4]
  24:pid.c         ****     PID->input = 0;
  73              		.loc 1 24 0
  74 0038 3B6A     		ldr	r3, [r7, #32]
  75 003a 0022     		movs	r2, #0
  76 003c 1A60     		str	r2, [r3]
  25:pid.c         ****     PID->error_d = 0;
  77              		.loc 1 25 0
  78 003e 3A6A     		ldr	r2, [r7, #32]
  79 0040 4FF00003 		mov	r3, #0
  80 0044 4FF00004 		mov	r4, #0
  81 0048 C2E90E34 		strd	r3, [r2, #56]
  26:pid.c         ****     PID->error_i = 0;
  82              		.loc 1 26 0
  83 004c 3A6A     		ldr	r2, [r7, #32]
  84 004e 4FF00003 		mov	r3, #0
  85 0052 4FF00004 		mov	r4, #0
  86 0056 C2E90C34 		strd	r3, [r2, #48]
  27:pid.c         ****     PID->error_last = 0;
  87              		.loc 1 27 0
ARM GAS  C:\Users\pajoh\AppData\Local\Temp\ccOLwa0b.s 			page 3


  88 005a 3A6A     		ldr	r2, [r7, #32]
  89 005c 4FF00003 		mov	r3, #0
  90 0060 4FF00004 		mov	r4, #0
  91 0064 C2E91234 		strd	r3, [r2, #72]
  28:pid.c         ****     PID->error_p = 0;
  92              		.loc 1 28 0
  93 0068 3A6A     		ldr	r2, [r7, #32]
  94 006a 4FF00003 		mov	r3, #0
  95 006e 4FF00004 		mov	r4, #0
  96 0072 C2E90A34 		strd	r3, [r2, #40]
  29:pid.c         ****     PID->feedforward = 0;
  97              		.loc 1 29 0
  98 0076 3B6A     		ldr	r3, [r7, #32]
  99 0078 0022     		movs	r2, #0
 100 007a DA60     		str	r2, [r3, #12]
  30:pid.c         ****     PID->output = 0;
 101              		.loc 1 30 0
 102 007c 3B6A     		ldr	r3, [r7, #32]
 103 007e 0022     		movs	r2, #0
 104 0080 9A60     		str	r2, [r3, #8]
  31:pid.c         ****     return 0;
 105              		.loc 1 31 0
 106 0082 0023     		movs	r3, #0
  32:pid.c         **** }
 107              		.loc 1 32 0
 108 0084 1846     		mov	r0, r3
 109 0086 1037     		adds	r7, r7, #16
 110              		.cfi_def_cfa_offset 8
 111 0088 BD46     		mov	sp, r7
 112              		.cfi_def_cfa_register 13
 113              		@ sp needed
 114 008a 90BC     		pop	{r4, r7}
 115              		.cfi_restore 7
 116              		.cfi_restore 4
 117              		.cfi_def_cfa_offset 0
 118 008c 7047     		bx	lr
 119              		.cfi_endproc
 120              	.LFE1:
 121              		.size	PIDConfig, .-PIDConfig
 122 008e 00BF     		.section	.text.PIDReset,"ax",%progbits
 123              		.align	2
 124              		.global	PIDReset
 125              		.thumb
 126              		.thumb_func
 127              		.type	PIDReset, %function
 128              	PIDReset:
 129              	.LFB2:
  33:pid.c         **** 
  34:pid.c         **** int8 PIDReset(pid_ts* PID){
 130              		.loc 1 34 0
 131              		.cfi_startproc
 132              		@ args = 0, pretend = 0, frame = 8
 133              		@ frame_needed = 1, uses_anonymous_args = 0
 134              		@ link register save eliminated.
 135 0000 90B4     		push	{r4, r7}
 136              		.cfi_def_cfa_offset 8
 137              		.cfi_offset 4, -8
ARM GAS  C:\Users\pajoh\AppData\Local\Temp\ccOLwa0b.s 			page 4


 138              		.cfi_offset 7, -4
 139 0002 82B0     		sub	sp, sp, #8
 140              		.cfi_def_cfa_offset 16
 141 0004 00AF     		add	r7, sp, #0
 142              		.cfi_def_cfa_register 7
 143 0006 7860     		str	r0, [r7, #4]
  35:pid.c         ****     PID->setpoint = 0;
 144              		.loc 1 35 0
 145 0008 7B68     		ldr	r3, [r7, #4]
 146 000a 0022     		movs	r2, #0
 147 000c 5A60     		str	r2, [r3, #4]
  36:pid.c         ****     PID->input = 0;
 148              		.loc 1 36 0
 149 000e 7B68     		ldr	r3, [r7, #4]
 150 0010 0022     		movs	r2, #0
 151 0012 1A60     		str	r2, [r3]
  37:pid.c         ****     PID->error_i = 0;
 152              		.loc 1 37 0
 153 0014 7A68     		ldr	r2, [r7, #4]
 154 0016 4FF00003 		mov	r3, #0
 155 001a 4FF00004 		mov	r4, #0
 156 001e C2E90C34 		strd	r3, [r2, #48]
  38:pid.c         ****     PID->output = 0;
 157              		.loc 1 38 0
 158 0022 7B68     		ldr	r3, [r7, #4]
 159 0024 0022     		movs	r2, #0
 160 0026 9A60     		str	r2, [r3, #8]
  39:pid.c         ****     PID->feedforward = 0;
 161              		.loc 1 39 0
 162 0028 7B68     		ldr	r3, [r7, #4]
 163 002a 0022     		movs	r2, #0
 164 002c DA60     		str	r2, [r3, #12]
  40:pid.c         ****     
  41:pid.c         ****     return 0;
 165              		.loc 1 41 0
 166 002e 0023     		movs	r3, #0
  42:pid.c         **** }
 167              		.loc 1 42 0
 168 0030 1846     		mov	r0, r3
 169 0032 0837     		adds	r7, r7, #8
 170              		.cfi_def_cfa_offset 8
 171 0034 BD46     		mov	sp, r7
 172              		.cfi_def_cfa_register 13
 173              		@ sp needed
 174 0036 90BC     		pop	{r4, r7}
 175              		.cfi_restore 7
 176              		.cfi_restore 4
 177              		.cfi_def_cfa_offset 0
 178 0038 7047     		bx	lr
 179              		.cfi_endproc
 180              	.LFE2:
 181              		.size	PIDReset, .-PIDReset
 182              		.global	__aeabi_ldivmod
 183 003a 00BF     		.section	.text.PID,"ax",%progbits
 184              		.align	2
 185              		.global	PID
 186              		.thumb
ARM GAS  C:\Users\pajoh\AppData\Local\Temp\ccOLwa0b.s 			page 5


 187              		.thumb_func
 188              		.type	PID, %function
 189              	PID:
 190              	.LFB3:
  43:pid.c         **** 
  44:pid.c         **** int32 PID(int32 input, int32 setpoint, int32 feedforward, pid_ts* PID){
 191              		.loc 1 44 0
 192              		.cfi_startproc
 193              		@ args = 0, pretend = 0, frame = 24
 194              		@ frame_needed = 1, uses_anonymous_args = 0
 195 0000 B0B5     		push	{r4, r5, r7, lr}
 196              		.cfi_def_cfa_offset 16
 197              		.cfi_offset 4, -16
 198              		.cfi_offset 5, -12
 199              		.cfi_offset 7, -8
 200              		.cfi_offset 14, -4
 201 0002 86B0     		sub	sp, sp, #24
 202              		.cfi_def_cfa_offset 40
 203 0004 00AF     		add	r7, sp, #0
 204              		.cfi_def_cfa_register 7
 205 0006 F860     		str	r0, [r7, #12]
 206 0008 B960     		str	r1, [r7, #8]
 207 000a 7A60     		str	r2, [r7, #4]
 208 000c 3B60     		str	r3, [r7]
  45:pid.c         ****     //PID function in integer math
  46:pid.c         ****     int32 error;
  47:pid.c         ****     int32 error_i;
  48:pid.c         ****     
  49:pid.c         ****     PID->input = input;
 209              		.loc 1 49 0
 210 000e 3B68     		ldr	r3, [r7]
 211 0010 FA68     		ldr	r2, [r7, #12]
 212 0012 1A60     		str	r2, [r3]
  50:pid.c         ****     PID->setpoint = setpoint;
 213              		.loc 1 50 0
 214 0014 3B68     		ldr	r3, [r7]
 215 0016 BA68     		ldr	r2, [r7, #8]
 216 0018 5A60     		str	r2, [r3, #4]
  51:pid.c         ****     PID->feedforward = feedforward;
 217              		.loc 1 51 0
 218 001a 3B68     		ldr	r3, [r7]
 219 001c 7A68     		ldr	r2, [r7, #4]
 220 001e DA60     		str	r2, [r3, #12]
  52:pid.c         ****     
  53:pid.c         ****     error = PID->setpoint - PID->input;
 221              		.loc 1 53 0
 222 0020 3B68     		ldr	r3, [r7]
 223 0022 5A68     		ldr	r2, [r3, #4]
 224 0024 3B68     		ldr	r3, [r7]
 225 0026 1B68     		ldr	r3, [r3]
 226 0028 D31A     		subs	r3, r2, r3
 227 002a 7B61     		str	r3, [r7, #20]
  54:pid.c         ****     
  55:pid.c         ****     PID->error_p = (error * PID->kp) / 1000;
 228              		.loc 1 55 0
 229 002c 3B68     		ldr	r3, [r7]
 230 002e 1B69     		ldr	r3, [r3, #16]
ARM GAS  C:\Users\pajoh\AppData\Local\Temp\ccOLwa0b.s 			page 6


 231 0030 7A69     		ldr	r2, [r7, #20]
 232 0032 02FB03F3 		mul	r3, r2, r3
 233 0036 4F4A     		ldr	r2, .L10
 234 0038 82FB0312 		smull	r1, r2, r2, r3
 235 003c 9211     		asrs	r2, r2, #6
 236 003e DB17     		asrs	r3, r3, #31
 237 0040 D31A     		subs	r3, r2, r3
 238 0042 4FEAE374 		asr	r4, r3, #31
 239 0046 3A68     		ldr	r2, [r7]
 240 0048 C2E90A34 		strd	r3, [r2, #40]
  56:pid.c         ****     error_i = (error * PID->ki) / 1000;
 241              		.loc 1 56 0
 242 004c 3B68     		ldr	r3, [r7]
 243 004e 5B69     		ldr	r3, [r3, #20]
 244 0050 7A69     		ldr	r2, [r7, #20]
 245 0052 02FB03F3 		mul	r3, r2, r3
 246 0056 474A     		ldr	r2, .L10
 247 0058 82FB0312 		smull	r1, r2, r2, r3
 248 005c 9211     		asrs	r2, r2, #6
 249 005e DB17     		asrs	r3, r3, #31
 250 0060 D31A     		subs	r3, r2, r3
 251 0062 3B61     		str	r3, [r7, #16]
  57:pid.c         ****     
  58:pid.c         ****     //anti-windup logic
  59:pid.c         ****     if(PID->error_i + error_i < PID->i_limit_neg){
 252              		.loc 1 59 0
 253 0064 3B68     		ldr	r3, [r7]
 254 0066 D3E90C12 		ldrd	r1, [r3, #48]
 255 006a 3B69     		ldr	r3, [r7, #16]
 256 006c 4FEAE374 		asr	r4, r3, #31
 257 0070 C918     		adds	r1, r1, r3
 258 0072 42EB0402 		adc	r2, r2, r4
 259 0076 3B68     		ldr	r3, [r7]
 260 0078 1B6A     		ldr	r3, [r3, #32]
 261 007a 4FEAE374 		asr	r4, r3, #31
 262 007e 9942     		cmp	r1, r3
 263 0080 72EB0403 		sbcs	r3, r2, r4
 264 0084 07DA     		bge	.L6
  60:pid.c         ****         PID->error_i = PID->i_limit_neg;   
 265              		.loc 1 60 0
 266 0086 3B68     		ldr	r3, [r7]
 267 0088 1B6A     		ldr	r3, [r3, #32]
 268 008a 4FEAE374 		asr	r4, r3, #31
 269 008e 3A68     		ldr	r2, [r7]
 270 0090 C2E90C34 		strd	r3, [r2, #48]
 271 0094 25E0     		b	.L7
 272              	.L6:
  61:pid.c         ****     }
  62:pid.c         ****     else if(PID->error_i + error_i > PID->i_limit_pos){
 273              		.loc 1 62 0
 274 0096 3B68     		ldr	r3, [r7]
 275 0098 D3E90C12 		ldrd	r1, [r3, #48]
 276 009c 3B69     		ldr	r3, [r7, #16]
 277 009e 4FEAE374 		asr	r4, r3, #31
 278 00a2 5B18     		adds	r3, r3, r1
 279 00a4 44EB0204 		adc	r4, r4, r2
 280 00a8 3A68     		ldr	r2, [r7]
ARM GAS  C:\Users\pajoh\AppData\Local\Temp\ccOLwa0b.s 			page 7


 281 00aa D269     		ldr	r2, [r2, #28]
 282 00ac 1146     		mov	r1, r2
 283 00ae 4FEAE172 		asr	r2, r1, #31
 284 00b2 9942     		cmp	r1, r3
 285 00b4 72EB0403 		sbcs	r3, r2, r4
 286 00b8 07DA     		bge	.L8
  63:pid.c         ****         PID->error_i = PID->i_limit_pos;   
 287              		.loc 1 63 0
 288 00ba 3B68     		ldr	r3, [r7]
 289 00bc DB69     		ldr	r3, [r3, #28]
 290 00be 4FEAE374 		asr	r4, r3, #31
 291 00c2 3A68     		ldr	r2, [r7]
 292 00c4 C2E90C34 		strd	r3, [r2, #48]
 293 00c8 0BE0     		b	.L7
 294              	.L8:
  64:pid.c         ****     }
  65:pid.c         ****     else{
  66:pid.c         ****         PID->error_i = PID->error_i + error_i;   
 295              		.loc 1 66 0
 296 00ca 3B68     		ldr	r3, [r7]
 297 00cc D3E90C12 		ldrd	r1, [r3, #48]
 298 00d0 3B69     		ldr	r3, [r7, #16]
 299 00d2 4FEAE374 		asr	r4, r3, #31
 300 00d6 5B18     		adds	r3, r3, r1
 301 00d8 44EB0204 		adc	r4, r4, r2
 302 00dc 3A68     		ldr	r2, [r7]
 303 00de C2E90C34 		strd	r3, [r2, #48]
 304              	.L7:
  67:pid.c         ****     }
  68:pid.c         ****     PID->error_d = (error - PID->error_last) * PID->kd / 1000;
 305              		.loc 1 68 0
 306 00e2 7B69     		ldr	r3, [r7, #20]
 307 00e4 1946     		mov	r1, r3
 308 00e6 4FEAE172 		asr	r2, r1, #31
 309 00ea 3B68     		ldr	r3, [r7]
 310 00ec 03F14804 		add	r4, r3, #72
 311 00f0 D4E90034 		ldrd	r3, [r4]
 312 00f4 C91A     		subs	r1, r1, r3
 313 00f6 62EB0402 		sbc	r2, r2, r4
 314 00fa 3B68     		ldr	r3, [r7]
 315 00fc 9B69     		ldr	r3, [r3, #24]
 316 00fe 4FEAE374 		asr	r4, r3, #31
 317 0102 03FB02F5 		mul	r5, r3, r2
 318 0106 01FB04F0 		mul	r0, r1, r4
 319 010a 0544     		add	r5, r5, r0
 320 010c A1FB0301 		umull	r0, r1, r1, r3
 321 0110 6B18     		adds	r3, r5, r1
 322 0112 1946     		mov	r1, r3
 323 0114 4FF47A72 		mov	r2, #1000
 324 0118 4FF00003 		mov	r3, #0
 325 011c FFF7FEFF 		bl	__aeabi_ldivmod
 326 0120 0346     		mov	r3, r0
 327 0122 0C46     		mov	r4, r1
 328 0124 3A68     		ldr	r2, [r7]
 329 0126 C2E90E34 		strd	r3, [r2, #56]
  69:pid.c         ****     PID->error_last = error;
 330              		.loc 1 69 0
ARM GAS  C:\Users\pajoh\AppData\Local\Temp\ccOLwa0b.s 			page 8


 331 012a 7B69     		ldr	r3, [r7, #20]
 332 012c 4FEAE374 		asr	r4, r3, #31
 333 0130 3A68     		ldr	r2, [r7]
 334 0132 C2E91234 		strd	r3, [r2, #72]
  70:pid.c         ****     
  71:pid.c         ****     PID->output = PID->feedforward + PID->error_p + PID->error_i + PID->error_d;
 335              		.loc 1 71 0
 336 0136 3B68     		ldr	r3, [r7]
 337 0138 DB68     		ldr	r3, [r3, #12]
 338 013a 1A46     		mov	r2, r3
 339 013c 3B68     		ldr	r3, [r7]
 340 013e 03F12804 		add	r4, r3, #40
 341 0142 D4E90034 		ldrd	r3, [r4]
 342 0146 1A44     		add	r2, r2, r3
 343 0148 3B68     		ldr	r3, [r7]
 344 014a 03F13004 		add	r4, r3, #48
 345 014e D4E90034 		ldrd	r3, [r4]
 346 0152 1A44     		add	r2, r2, r3
 347 0154 3B68     		ldr	r3, [r7]
 348 0156 03F13804 		add	r4, r3, #56
 349 015a D4E90034 		ldrd	r3, [r4]
 350 015e 1344     		add	r3, r3, r2
 351 0160 1A46     		mov	r2, r3
 352 0162 3B68     		ldr	r3, [r7]
 353 0164 9A60     		str	r2, [r3, #8]
  72:pid.c         ****     
  73:pid.c         ****     return PID->output;
 354              		.loc 1 73 0
 355 0166 3B68     		ldr	r3, [r7]
 356 0168 9B68     		ldr	r3, [r3, #8]
  74:pid.c         **** }
 357              		.loc 1 74 0
 358 016a 1846     		mov	r0, r3
 359 016c 1837     		adds	r7, r7, #24
 360              		.cfi_def_cfa_offset 16
 361 016e BD46     		mov	sp, r7
 362              		.cfi_def_cfa_register 13
 363              		@ sp needed
 364 0170 B0BD     		pop	{r4, r5, r7, pc}
 365              	.L11:
 366 0172 00BF     		.align	2
 367              	.L10:
 368 0174 D34D6210 		.word	274877907
 369              		.cfi_endproc
 370              	.LFE3:
 371              		.size	PID, .-PID
 372              		.section	.text.PIDStatus,"ax",%progbits
 373              		.align	2
 374              		.global	PIDStatus
 375              		.thumb
 376              		.thumb_func
 377              		.type	PIDStatus, %function
 378              	PIDStatus:
 379              	.LFB4:
  75:pid.c         **** 
  76:pid.c         **** uint32 PIDStatus(pid_ts* PID){
 380              		.loc 1 76 0
ARM GAS  C:\Users\pajoh\AppData\Local\Temp\ccOLwa0b.s 			page 9


 381              		.cfi_startproc
 382              		@ args = 0, pretend = 0, frame = 8
 383              		@ frame_needed = 1, uses_anonymous_args = 0
 384              		@ link register save eliminated.
 385 0000 80B4     		push	{r7}
 386              		.cfi_def_cfa_offset 4
 387              		.cfi_offset 7, -4
 388 0002 83B0     		sub	sp, sp, #12
 389              		.cfi_def_cfa_offset 16
 390 0004 00AF     		add	r7, sp, #0
 391              		.cfi_def_cfa_register 7
 392 0006 7860     		str	r0, [r7, #4]
  77:pid.c         ****     return PID->status;
 393              		.loc 1 77 0
 394 0008 7B68     		ldr	r3, [r7, #4]
 395 000a 1B6D     		ldr	r3, [r3, #80]
  78:pid.c         **** }
 396              		.loc 1 78 0
 397 000c 1846     		mov	r0, r3
 398 000e 0C37     		adds	r7, r7, #12
 399              		.cfi_def_cfa_offset 4
 400 0010 BD46     		mov	sp, r7
 401              		.cfi_def_cfa_register 13
 402              		@ sp needed
 403 0012 80BC     		pop	{r7}
 404              		.cfi_restore 7
 405              		.cfi_def_cfa_offset 0
 406 0014 7047     		bx	lr
 407              		.cfi_endproc
 408              	.LFE4:
 409              		.size	PIDStatus, .-PIDStatus
 410 0016 00BF     		.text
 411              	.Letext0:
 412              		.file 2 "Generated_Source\\PSoC5/cytypes.h"
 413              		.file 3 "pid.h"