ARM GAS  C:\Users\pajoh\AppData\Local\Temp\ccQ0f8tb.s 			page 1


   1              		.syntax unified
   2              		.cpu cortex-m3
   3              		.fpu softvfp
   4              		.eabi_attribute 20, 1
   5              		.eabi_attribute 21, 1
   6              		.eabi_attribute 23, 3
   7              		.eabi_attribute 24, 1
   8              		.eabi_attribute 25, 1
   9              		.eabi_attribute 26, 1
  10              		.eabi_attribute 30, 6
  11              		.eabi_attribute 34, 1
  12              		.eabi_attribute 18, 4
  13              		.thumb
  14              		.syntax unified
  15              		.file	"tick.c"
  16              		.text
  17              	.Ltext0:
  18              		.cfi_sections	.debug_frame
  19              		.global	angle_old
  20              		.bss
  21              		.align	2
  22              		.type	angle_old, %object
  23              		.size	angle_old, 4
  24              	angle_old:
  25 0000 00000000 		.space	4
  26              		.global	axis_position_old
  27              		.align	2
  28              		.type	axis_position_old, %object
  29              		.size	axis_position_old, 4
  30              	axis_position_old:
  31 0004 00000000 		.space	4
  32              		.comm	start_count,4,4
  33              		.comm	count,4,4
  34              		.section	.text.tick_Start,"ax",%progbits
  35              		.align	2
  36              		.global	tick_Start
  37              		.thumb
  38              		.thumb_func
  39              		.type	tick_Start, %function
  40              	tick_Start:
  41              	.LFB0:
  42              		.file 1 "Generated_Source\\PSoC5\\tick.c"
   1:Generated_Source\PSoC5/tick.c **** /*******************************************************************************
   2:Generated_Source\PSoC5/tick.c **** * File Name: tick.c  
   3:Generated_Source\PSoC5/tick.c **** * Version 1.70
   4:Generated_Source\PSoC5/tick.c **** *
   5:Generated_Source\PSoC5/tick.c **** *  Description:
   6:Generated_Source\PSoC5/tick.c **** *   API for controlling the state of an interrupt.
   7:Generated_Source\PSoC5/tick.c **** *
   8:Generated_Source\PSoC5/tick.c **** *
   9:Generated_Source\PSoC5/tick.c **** *  Note:
  10:Generated_Source\PSoC5/tick.c **** *
  11:Generated_Source\PSoC5/tick.c **** ********************************************************************************
  12:Generated_Source\PSoC5/tick.c **** * Copyright 2008-2015, Cypress Semiconductor Corporation.  All rights reserved.
  13:Generated_Source\PSoC5/tick.c **** * You may use this file only in accordance with the license, terms, conditions, 
  14:Generated_Source\PSoC5/tick.c **** * disclaimers, and limitations in the end user license agreement accompanying 
  15:Generated_Source\PSoC5/tick.c **** * the software package with which this file was provided.
ARM GAS  C:\Users\pajoh\AppData\Local\Temp\ccQ0f8tb.s 			page 2


  16:Generated_Source\PSoC5/tick.c **** *******************************************************************************/
  17:Generated_Source\PSoC5/tick.c **** 
  18:Generated_Source\PSoC5/tick.c **** 
  19:Generated_Source\PSoC5/tick.c **** #include <cydevice_trm.h>
  20:Generated_Source\PSoC5/tick.c **** #include <CyLib.h>
  21:Generated_Source\PSoC5/tick.c **** #include <tick.h>
  22:Generated_Source\PSoC5/tick.c **** #include "cyapicallbacks.h"
  23:Generated_Source\PSoC5/tick.c **** 
  24:Generated_Source\PSoC5/tick.c **** #if !defined(tick__REMOVED) /* Check for removal by optimization */
  25:Generated_Source\PSoC5/tick.c **** 
  26:Generated_Source\PSoC5/tick.c **** /*******************************************************************************
  27:Generated_Source\PSoC5/tick.c **** *  Place your includes, defines and code here 
  28:Generated_Source\PSoC5/tick.c **** ********************************************************************************/
  29:Generated_Source\PSoC5/tick.c **** /* `#START tick_intc` */
  30:Generated_Source\PSoC5/tick.c ****     #include "SPIM.h"
  31:Generated_Source\PSoC5/tick.c ****     #include "ShiftReg_1.h"
  32:Generated_Source\PSoC5/tick.c ****     #include "Direction.h"
  33:Generated_Source\PSoC5/tick.c ****     #include "Interrupt_t.h"
  34:Generated_Source\PSoC5/tick.c ****     #define TORQUE_CTRL
  35:Generated_Source\PSoC5/tick.c ****     extern volatile uint8 controller_tick;
  36:Generated_Source\PSoC5/tick.c ****     extern volatile int32 angle;
  37:Generated_Source\PSoC5/tick.c ****     extern volatile uint16 read_angle_command;
  38:Generated_Source\PSoC5/tick.c ****     extern volatile int32 lead_angle;
  39:Generated_Source\PSoC5/tick.c ****     extern volatile uint32 step_array[17];
  40:Generated_Source\PSoC5/tick.c ****     extern volatile int32 angle_electric;
  41:Generated_Source\PSoC5/tick.c ****     extern volatile int32 angle_diff;
  42:Generated_Source\PSoC5/tick.c ****     extern volatile int32 torque_command;
  43:Generated_Source\PSoC5/tick.c ****     extern volatile int32 axis_position;
  44:Generated_Source\PSoC5/tick.c ****     extern volatile int32 offsetMap[512];
  45:Generated_Source\PSoC5/tick.c ****     volatile int32 angle_old = 0;
  46:Generated_Source\PSoC5/tick.c ****     volatile int32 axis_position_old = 0;
  47:Generated_Source\PSoC5/tick.c ****     extern volatile int32 axis_position_filtered;
  48:Generated_Source\PSoC5/tick.c ****     extern volatile int32 axis_position_filtered_2;
  49:Generated_Source\PSoC5/tick.c ****     int start_count;
  50:Generated_Source\PSoC5/tick.c ****     int count;
  51:Generated_Source\PSoC5/tick.c **** /* `#END` */
  52:Generated_Source\PSoC5/tick.c **** 
  53:Generated_Source\PSoC5/tick.c **** #ifndef CYINT_IRQ_BASE
  54:Generated_Source\PSoC5/tick.c **** #define CYINT_IRQ_BASE      16
  55:Generated_Source\PSoC5/tick.c **** #endif /* CYINT_IRQ_BASE */
  56:Generated_Source\PSoC5/tick.c **** #ifndef CYINT_VECT_TABLE
  57:Generated_Source\PSoC5/tick.c **** #define CYINT_VECT_TABLE    ((cyisraddress **) CYREG_NVIC_VECT_OFFSET)
  58:Generated_Source\PSoC5/tick.c **** #endif /* CYINT_VECT_TABLE */
  59:Generated_Source\PSoC5/tick.c **** 
  60:Generated_Source\PSoC5/tick.c **** /* Declared in startup, used to set unused interrupts to. */
  61:Generated_Source\PSoC5/tick.c **** CY_ISR_PROTO(IntDefaultHandler);
  62:Generated_Source\PSoC5/tick.c **** 
  63:Generated_Source\PSoC5/tick.c **** 
  64:Generated_Source\PSoC5/tick.c **** /*******************************************************************************
  65:Generated_Source\PSoC5/tick.c **** * Function Name: tick_Start
  66:Generated_Source\PSoC5/tick.c **** ********************************************************************************
  67:Generated_Source\PSoC5/tick.c **** *
  68:Generated_Source\PSoC5/tick.c **** * Summary:
  69:Generated_Source\PSoC5/tick.c **** *  Set up the interrupt and enable it. This function disables the interrupt, 
  70:Generated_Source\PSoC5/tick.c **** *  sets the default interrupt vector, sets the priority from the value in the
  71:Generated_Source\PSoC5/tick.c **** *  Design Wide Resources Interrupt Editor, then enables the interrupt to the 
  72:Generated_Source\PSoC5/tick.c **** *  interrupt controller.
ARM GAS  C:\Users\pajoh\AppData\Local\Temp\ccQ0f8tb.s 			page 3


  73:Generated_Source\PSoC5/tick.c **** *
  74:Generated_Source\PSoC5/tick.c **** * Parameters:  
  75:Generated_Source\PSoC5/tick.c **** *   None
  76:Generated_Source\PSoC5/tick.c **** *
  77:Generated_Source\PSoC5/tick.c **** * Return:
  78:Generated_Source\PSoC5/tick.c **** *   None
  79:Generated_Source\PSoC5/tick.c **** *
  80:Generated_Source\PSoC5/tick.c **** *******************************************************************************/
  81:Generated_Source\PSoC5/tick.c **** void tick_Start(void)
  82:Generated_Source\PSoC5/tick.c **** {
  43              		.loc 1 82 0
  44              		.cfi_startproc
  45              		@ args = 0, pretend = 0, frame = 0
  46              		@ frame_needed = 1, uses_anonymous_args = 0
  47 0000 80B5     		push	{r7, lr}
  48              		.cfi_def_cfa_offset 8
  49              		.cfi_offset 7, -8
  50              		.cfi_offset 14, -4
  51 0002 00AF     		add	r7, sp, #0
  52              		.cfi_def_cfa_register 7
  83:Generated_Source\PSoC5/tick.c ****     /* For all we know the interrupt is active. */
  84:Generated_Source\PSoC5/tick.c ****     tick_Disable();
  53              		.loc 1 84 0
  54 0004 FFF7FEFF 		bl	tick_Disable
  85:Generated_Source\PSoC5/tick.c **** 
  86:Generated_Source\PSoC5/tick.c ****     /* Set the ISR to point to the tick Interrupt. */
  87:Generated_Source\PSoC5/tick.c ****     tick_SetVector(&tick_Interrupt);
  55              		.loc 1 87 0
  56 0008 0448     		ldr	r0, .L2
  57 000a FFF7FEFF 		bl	tick_SetVector
  88:Generated_Source\PSoC5/tick.c **** 
  89:Generated_Source\PSoC5/tick.c ****     /* Set the priority. */
  90:Generated_Source\PSoC5/tick.c ****     tick_SetPriority((uint8)tick_INTC_PRIOR_NUMBER);
  58              		.loc 1 90 0
  59 000e 0720     		movs	r0, #7
  60 0010 FFF7FEFF 		bl	tick_SetPriority
  91:Generated_Source\PSoC5/tick.c **** 
  92:Generated_Source\PSoC5/tick.c ****     /* Enable it. */
  93:Generated_Source\PSoC5/tick.c ****     tick_Enable();
  61              		.loc 1 93 0
  62 0014 FFF7FEFF 		bl	tick_Enable
  94:Generated_Source\PSoC5/tick.c **** }
  63              		.loc 1 94 0
  64 0018 00BF     		nop
  65 001a 80BD     		pop	{r7, pc}
  66              	.L3:
  67              		.align	2
  68              	.L2:
  69 001c 00000000 		.word	tick_Interrupt
  70              		.cfi_endproc
  71              	.LFE0:
  72              		.size	tick_Start, .-tick_Start
  73              		.section	.text.tick_StartEx,"ax",%progbits
  74              		.align	2
  75              		.global	tick_StartEx
  76              		.thumb
  77              		.thumb_func
ARM GAS  C:\Users\pajoh\AppData\Local\Temp\ccQ0f8tb.s 			page 4


  78              		.type	tick_StartEx, %function
  79              	tick_StartEx:
  80              	.LFB1:
  95:Generated_Source\PSoC5/tick.c **** 
  96:Generated_Source\PSoC5/tick.c **** 
  97:Generated_Source\PSoC5/tick.c **** /*******************************************************************************
  98:Generated_Source\PSoC5/tick.c **** * Function Name: tick_StartEx
  99:Generated_Source\PSoC5/tick.c **** ********************************************************************************
 100:Generated_Source\PSoC5/tick.c **** *
 101:Generated_Source\PSoC5/tick.c **** * Summary:
 102:Generated_Source\PSoC5/tick.c **** *  Sets up the interrupt and enables it. This function disables the interrupt,
 103:Generated_Source\PSoC5/tick.c **** *  sets the interrupt vector based on the address passed in, sets the priority 
 104:Generated_Source\PSoC5/tick.c **** *  from the value in the Design Wide Resources Interrupt Editor, then enables 
 105:Generated_Source\PSoC5/tick.c **** *  the interrupt to the interrupt controller.
 106:Generated_Source\PSoC5/tick.c **** *  
 107:Generated_Source\PSoC5/tick.c **** *  When defining ISR functions, the CY_ISR and CY_ISR_PROTO macros should be 
 108:Generated_Source\PSoC5/tick.c **** *  used to provide consistent definition across compilers:
 109:Generated_Source\PSoC5/tick.c **** *  
 110:Generated_Source\PSoC5/tick.c **** *  Function definition example:
 111:Generated_Source\PSoC5/tick.c **** *   CY_ISR(MyISR)
 112:Generated_Source\PSoC5/tick.c **** *   {
 113:Generated_Source\PSoC5/tick.c **** *   }
 114:Generated_Source\PSoC5/tick.c **** *   Function prototype example:
 115:Generated_Source\PSoC5/tick.c **** *   CY_ISR_PROTO(MyISR);
 116:Generated_Source\PSoC5/tick.c **** *
 117:Generated_Source\PSoC5/tick.c **** * Parameters:  
 118:Generated_Source\PSoC5/tick.c **** *   address: Address of the ISR to set in the interrupt vector table.
 119:Generated_Source\PSoC5/tick.c **** *
 120:Generated_Source\PSoC5/tick.c **** * Return:
 121:Generated_Source\PSoC5/tick.c **** *   None
 122:Generated_Source\PSoC5/tick.c **** *
 123:Generated_Source\PSoC5/tick.c **** *******************************************************************************/
 124:Generated_Source\PSoC5/tick.c **** void tick_StartEx(cyisraddress address)
 125:Generated_Source\PSoC5/tick.c **** {
  81              		.loc 1 125 0
  82              		.cfi_startproc
  83              		@ args = 0, pretend = 0, frame = 8
  84              		@ frame_needed = 1, uses_anonymous_args = 0
  85 0000 80B5     		push	{r7, lr}
  86              		.cfi_def_cfa_offset 8
  87              		.cfi_offset 7, -8
  88              		.cfi_offset 14, -4
  89 0002 82B0     		sub	sp, sp, #8
  90              		.cfi_def_cfa_offset 16
  91 0004 00AF     		add	r7, sp, #0
  92              		.cfi_def_cfa_register 7
  93 0006 7860     		str	r0, [r7, #4]
 126:Generated_Source\PSoC5/tick.c ****     /* For all we know the interrupt is active. */
 127:Generated_Source\PSoC5/tick.c ****     tick_Disable();
  94              		.loc 1 127 0
  95 0008 FFF7FEFF 		bl	tick_Disable
 128:Generated_Source\PSoC5/tick.c **** 
 129:Generated_Source\PSoC5/tick.c ****     /* Set the ISR to point to the tick Interrupt. */
 130:Generated_Source\PSoC5/tick.c ****     tick_SetVector(address);
  96              		.loc 1 130 0
  97 000c 7868     		ldr	r0, [r7, #4]
  98 000e FFF7FEFF 		bl	tick_SetVector
ARM GAS  C:\Users\pajoh\AppData\Local\Temp\ccQ0f8tb.s 			page 5


 131:Generated_Source\PSoC5/tick.c **** 
 132:Generated_Source\PSoC5/tick.c ****     /* Set the priority. */
 133:Generated_Source\PSoC5/tick.c ****     tick_SetPriority((uint8)tick_INTC_PRIOR_NUMBER);
  99              		.loc 1 133 0
 100 0012 0720     		movs	r0, #7
 101 0014 FFF7FEFF 		bl	tick_SetPriority
 134:Generated_Source\PSoC5/tick.c **** 
 135:Generated_Source\PSoC5/tick.c ****     /* Enable it. */
 136:Generated_Source\PSoC5/tick.c ****     tick_Enable();
 102              		.loc 1 136 0
 103 0018 FFF7FEFF 		bl	tick_Enable
 137:Generated_Source\PSoC5/tick.c **** }
 104              		.loc 1 137 0
 105 001c 00BF     		nop
 106 001e 0837     		adds	r7, r7, #8
 107              		.cfi_def_cfa_offset 8
 108 0020 BD46     		mov	sp, r7
 109              		.cfi_def_cfa_register 13
 110              		@ sp needed
 111 0022 80BD     		pop	{r7, pc}
 112              		.cfi_endproc
 113              	.LFE1:
 114              		.size	tick_StartEx, .-tick_StartEx
 115              		.section	.text.tick_Stop,"ax",%progbits
 116              		.align	2
 117              		.global	tick_Stop
 118              		.thumb
 119              		.thumb_func
 120              		.type	tick_Stop, %function
 121              	tick_Stop:
 122              	.LFB2:
 138:Generated_Source\PSoC5/tick.c **** 
 139:Generated_Source\PSoC5/tick.c **** 
 140:Generated_Source\PSoC5/tick.c **** /*******************************************************************************
 141:Generated_Source\PSoC5/tick.c **** * Function Name: tick_Stop
 142:Generated_Source\PSoC5/tick.c **** ********************************************************************************
 143:Generated_Source\PSoC5/tick.c **** *
 144:Generated_Source\PSoC5/tick.c **** * Summary:
 145:Generated_Source\PSoC5/tick.c **** *   Disables and removes the interrupt.
 146:Generated_Source\PSoC5/tick.c **** *
 147:Generated_Source\PSoC5/tick.c **** * Parameters:  
 148:Generated_Source\PSoC5/tick.c **** *   None
 149:Generated_Source\PSoC5/tick.c **** *
 150:Generated_Source\PSoC5/tick.c **** * Return:
 151:Generated_Source\PSoC5/tick.c **** *   None
 152:Generated_Source\PSoC5/tick.c **** *
 153:Generated_Source\PSoC5/tick.c **** *******************************************************************************/
 154:Generated_Source\PSoC5/tick.c **** void tick_Stop(void)
 155:Generated_Source\PSoC5/tick.c **** {
 123              		.loc 1 155 0
 124              		.cfi_startproc
 125              		@ args = 0, pretend = 0, frame = 0
 126              		@ frame_needed = 1, uses_anonymous_args = 0
 127 0000 80B5     		push	{r7, lr}
 128              		.cfi_def_cfa_offset 8
 129              		.cfi_offset 7, -8
 130              		.cfi_offset 14, -4
ARM GAS  C:\Users\pajoh\AppData\Local\Temp\ccQ0f8tb.s 			page 6


 131 0002 00AF     		add	r7, sp, #0
 132              		.cfi_def_cfa_register 7
 156:Generated_Source\PSoC5/tick.c ****     /* Disable this interrupt. */
 157:Generated_Source\PSoC5/tick.c ****     tick_Disable();
 133              		.loc 1 157 0
 134 0004 FFF7FEFF 		bl	tick_Disable
 158:Generated_Source\PSoC5/tick.c **** 
 159:Generated_Source\PSoC5/tick.c ****     /* Set the ISR to point to the passive one. */
 160:Generated_Source\PSoC5/tick.c ****     tick_SetVector(&IntDefaultHandler);
 135              		.loc 1 160 0
 136 0008 0248     		ldr	r0, .L6
 137 000a FFF7FEFF 		bl	tick_SetVector
 161:Generated_Source\PSoC5/tick.c **** }
 138              		.loc 1 161 0
 139 000e 00BF     		nop
 140 0010 80BD     		pop	{r7, pc}
 141              	.L7:
 142 0012 00BF     		.align	2
 143              	.L6:
 144 0014 00000000 		.word	IntDefaultHandler
 145              		.cfi_endproc
 146              	.LFE2:
 147              		.size	tick_Stop, .-tick_Stop
 148              		.section	.text.tick_Interrupt,"ax",%progbits
 149              		.align	2
 150              		.global	tick_Interrupt
 151              		.thumb
 152              		.thumb_func
 153              		.type	tick_Interrupt, %function
 154              	tick_Interrupt:
 155              	.LFB3:
 162:Generated_Source\PSoC5/tick.c **** 
 163:Generated_Source\PSoC5/tick.c **** 
 164:Generated_Source\PSoC5/tick.c **** /*******************************************************************************
 165:Generated_Source\PSoC5/tick.c **** * Function Name: tick_Interrupt
 166:Generated_Source\PSoC5/tick.c **** ********************************************************************************
 167:Generated_Source\PSoC5/tick.c **** *
 168:Generated_Source\PSoC5/tick.c **** * Summary:
 169:Generated_Source\PSoC5/tick.c **** *   The default Interrupt Service Routine for tick.
 170:Generated_Source\PSoC5/tick.c **** *
 171:Generated_Source\PSoC5/tick.c **** *   Add custom code between the coments to keep the next version of this file
 172:Generated_Source\PSoC5/tick.c **** *   from over writting your code.
 173:Generated_Source\PSoC5/tick.c **** *
 174:Generated_Source\PSoC5/tick.c **** * Parameters:  
 175:Generated_Source\PSoC5/tick.c **** *
 176:Generated_Source\PSoC5/tick.c **** * Return:
 177:Generated_Source\PSoC5/tick.c **** *   None
 178:Generated_Source\PSoC5/tick.c **** *
 179:Generated_Source\PSoC5/tick.c **** *******************************************************************************/
 180:Generated_Source\PSoC5/tick.c **** CY_ISR(tick_Interrupt)
 181:Generated_Source\PSoC5/tick.c **** {
 156              		.loc 1 181 0
 157              		.cfi_startproc
 158              		@ args = 0, pretend = 0, frame = 0
 159              		@ frame_needed = 1, uses_anonymous_args = 0
 160 0000 80B5     		push	{r7, lr}
 161              		.cfi_def_cfa_offset 8
ARM GAS  C:\Users\pajoh\AppData\Local\Temp\ccQ0f8tb.s 			page 7


 162              		.cfi_offset 7, -8
 163              		.cfi_offset 14, -4
 164 0002 00AF     		add	r7, sp, #0
 165              		.cfi_def_cfa_register 7
 182:Generated_Source\PSoC5/tick.c ****     #ifdef tick_INTERRUPT_INTERRUPT_CALLBACK
 183:Generated_Source\PSoC5/tick.c ****         tick_Interrupt_InterruptCallback();
 184:Generated_Source\PSoC5/tick.c ****     #endif /* tick_INTERRUPT_INTERRUPT_CALLBACK */ 
 185:Generated_Source\PSoC5/tick.c **** 
 186:Generated_Source\PSoC5/tick.c ****     /*  Place your Interrupt code here. */
 187:Generated_Source\PSoC5/tick.c ****     /* `#START tick_Interrupt` */
 188:Generated_Source\PSoC5/tick.c ****         Interrupt_t_Write(1);
 166              		.loc 1 188 0
 167 0004 0120     		movs	r0, #1
 168 0006 FFF7FEFF 		bl	Interrupt_t_Write
 189:Generated_Source\PSoC5/tick.c ****         //sample the angle sensor
 190:Generated_Source\PSoC5/tick.c ****         //send read command after checking for data
 191:Generated_Source\PSoC5/tick.c ****         //interrupt takes less time this way (hopefully)
 192:Generated_Source\PSoC5/tick.c ****         if(SPIM_GetRxBufferSize() != 0){
 169              		.loc 1 192 0
 170 000a FFF7FEFF 		bl	SPIM_GetRxBufferSize
 171 000e 0346     		mov	r3, r0
 172 0010 002B     		cmp	r3, #0
 173 0012 15D0     		beq	.L9
 193:Generated_Source\PSoC5/tick.c ****             angle = SPIM_ReadRxData() & 0x3FFF; //((SPIM_ReadRxData() & 0x3FFF) * 3600)/16384;
 174              		.loc 1 193 0
 175 0014 FFF7FEFF 		bl	SPIM_ReadRxData
 176 0018 0346     		mov	r3, r0
 177 001a C3F30D03 		ubfx	r3, r3, #0, #14
 178 001e 934A     		ldr	r2, .L25
 179 0020 1360     		str	r3, [r2]
 194:Generated_Source\PSoC5/tick.c ****             angle = angle + offsetMap[angle/32];
 180              		.loc 1 194 0
 181 0022 924B     		ldr	r3, .L25
 182 0024 1B68     		ldr	r3, [r3]
 183 0026 002B     		cmp	r3, #0
 184 0028 00DA     		bge	.L10
 185 002a 1F33     		adds	r3, r3, #31
 186              	.L10:
 187 002c 5B11     		asrs	r3, r3, #5
 188 002e 1A46     		mov	r2, r3
 189 0030 8F4B     		ldr	r3, .L25+4
 190 0032 53F82220 		ldr	r2, [r3, r2, lsl #2]
 191 0036 8D4B     		ldr	r3, .L25
 192 0038 1B68     		ldr	r3, [r3]
 193 003a 1344     		add	r3, r3, r2
 194 003c 8B4A     		ldr	r2, .L25
 195 003e 1360     		str	r3, [r2]
 196              	.L9:
 195:Generated_Source\PSoC5/tick.c ****         }
 196:Generated_Source\PSoC5/tick.c ****         SPIM_WriteTxData(read_angle_command);
 197              		.loc 1 196 0
 198 0040 8C4B     		ldr	r3, .L25+8
 199 0042 1B88     		ldrh	r3, [r3]	@ movhi
 200 0044 9BB2     		uxth	r3, r3
 201 0046 1846     		mov	r0, r3
 202 0048 FFF7FEFF 		bl	SPIM_WriteTxData
 197:Generated_Source\PSoC5/tick.c ****         axis_position_old = axis_position;
ARM GAS  C:\Users\pajoh\AppData\Local\Temp\ccQ0f8tb.s 			page 8


 203              		.loc 1 197 0
 204 004c 8A4B     		ldr	r3, .L25+12
 205 004e 1B68     		ldr	r3, [r3]
 206 0050 8A4A     		ldr	r2, .L25+16
 207 0052 1360     		str	r3, [r2]
 198:Generated_Source\PSoC5/tick.c ****         if(angle - angle_old > 10000){
 208              		.loc 1 198 0
 209 0054 854B     		ldr	r3, .L25
 210 0056 1A68     		ldr	r2, [r3]
 211 0058 894B     		ldr	r3, .L25+20
 212 005a 1B68     		ldr	r3, [r3]
 213 005c D31A     		subs	r3, r2, r3
 214 005e 42F21072 		movw	r2, #10000
 215 0062 9342     		cmp	r3, r2
 216 0064 0CDD     		ble	.L11
 199:Generated_Source\PSoC5/tick.c ****             //angle decreasing, crossed over 0
 200:Generated_Source\PSoC5/tick.c ****             axis_position = axis_position + (angle - (angle_old + 16384));
 217              		.loc 1 200 0
 218 0066 814B     		ldr	r3, .L25
 219 0068 1A68     		ldr	r2, [r3]
 220 006a 854B     		ldr	r3, .L25+20
 221 006c 1B68     		ldr	r3, [r3]
 222 006e 03F58043 		add	r3, r3, #16384
 223 0072 D21A     		subs	r2, r2, r3
 224 0074 804B     		ldr	r3, .L25+12
 225 0076 1B68     		ldr	r3, [r3]
 226 0078 1344     		add	r3, r3, r2
 227 007a 7F4A     		ldr	r2, .L25+12
 228 007c 1360     		str	r3, [r2]
 229 007e 29E0     		b	.L12
 230              	.L11:
 201:Generated_Source\PSoC5/tick.c ****         }
 202:Generated_Source\PSoC5/tick.c ****         else if(angle - angle_old < -10000){
 231              		.loc 1 202 0
 232 0080 7A4B     		ldr	r3, .L25
 233 0082 1A68     		ldr	r2, [r3]
 234 0084 7E4B     		ldr	r3, .L25+20
 235 0086 1B68     		ldr	r3, [r3]
 236 0088 D31A     		subs	r3, r2, r3
 237 008a 7E4A     		ldr	r2, .L25+24
 238 008c 9342     		cmp	r3, r2
 239 008e 17DA     		bge	.L13
 203:Generated_Source\PSoC5/tick.c ****             //angle increasing, crossed over 0
 204:Generated_Source\PSoC5/tick.c ****             axis_position = axis_position + ((angle - angle_old) + 16384) % 16384;
 240              		.loc 1 204 0
 241 0090 764B     		ldr	r3, .L25
 242 0092 1A68     		ldr	r2, [r3]
 243 0094 7A4B     		ldr	r3, .L25+20
 244 0096 1B68     		ldr	r3, [r3]
 245 0098 D31A     		subs	r3, r2, r3
 246 009a 03F58042 		add	r2, r3, #16384
 247 009e 7A4B     		ldr	r3, .L25+28
 248 00a0 1340     		ands	r3, r3, r2
 249 00a2 002B     		cmp	r3, #0
 250 00a4 05DA     		bge	.L14
 251 00a6 013B     		subs	r3, r3, #1
 252 00a8 6FEA8343 		mvn	r3, r3, lsl #18
ARM GAS  C:\Users\pajoh\AppData\Local\Temp\ccQ0f8tb.s 			page 9


 253 00ac 6FEA9343 		mvn	r3, r3, lsr #18
 254 00b0 0133     		adds	r3, r3, #1
 255              	.L14:
 256 00b2 1A46     		mov	r2, r3
 257 00b4 704B     		ldr	r3, .L25+12
 258 00b6 1B68     		ldr	r3, [r3]
 259 00b8 1344     		add	r3, r3, r2
 260 00ba 6F4A     		ldr	r2, .L25+12
 261 00bc 1360     		str	r3, [r2]
 262 00be 09E0     		b	.L12
 263              	.L13:
 205:Generated_Source\PSoC5/tick.c ****         }
 206:Generated_Source\PSoC5/tick.c ****         else{
 207:Generated_Source\PSoC5/tick.c ****             axis_position = axis_position + angle - angle_old;
 264              		.loc 1 207 0
 265 00c0 6D4B     		ldr	r3, .L25+12
 266 00c2 1A68     		ldr	r2, [r3]
 267 00c4 694B     		ldr	r3, .L25
 268 00c6 1B68     		ldr	r3, [r3]
 269 00c8 1A44     		add	r2, r2, r3
 270 00ca 6D4B     		ldr	r3, .L25+20
 271 00cc 1B68     		ldr	r3, [r3]
 272 00ce D31A     		subs	r3, r2, r3
 273 00d0 694A     		ldr	r2, .L25+12
 274 00d2 1360     		str	r3, [r2]
 275              	.L12:
 208:Generated_Source\PSoC5/tick.c ****         }
 209:Generated_Source\PSoC5/tick.c ****         angle_old = angle;
 276              		.loc 1 209 0
 277 00d4 654B     		ldr	r3, .L25
 278 00d6 1B68     		ldr	r3, [r3]
 279 00d8 694A     		ldr	r2, .L25+20
 280 00da 1360     		str	r3, [r2]
 210:Generated_Source\PSoC5/tick.c ****         if(start_count < 100){
 281              		.loc 1 210 0
 282 00dc 6B4B     		ldr	r3, .L25+32
 283 00de 1B68     		ldr	r3, [r3]
 284 00e0 632B     		cmp	r3, #99
 285 00e2 04DC     		bgt	.L15
 211:Generated_Source\PSoC5/tick.c ****             start_count++;   
 286              		.loc 1 211 0
 287 00e4 694B     		ldr	r3, .L25+32
 288 00e6 1B68     		ldr	r3, [r3]
 289 00e8 0133     		adds	r3, r3, #1
 290 00ea 684A     		ldr	r2, .L25+32
 291 00ec 1360     		str	r3, [r2]
 292              	.L15:
 212:Generated_Source\PSoC5/tick.c ****         }
 213:Generated_Source\PSoC5/tick.c ****         axis_position_filtered = (axis_position_filtered*5 + axis_position*3)/8;
 293              		.loc 1 213 0
 294 00ee 684B     		ldr	r3, .L25+36
 295 00f0 1A68     		ldr	r2, [r3]
 296 00f2 1346     		mov	r3, r2
 297 00f4 9B00     		lsls	r3, r3, #2
 298 00f6 9918     		adds	r1, r3, r2
 299 00f8 5F4B     		ldr	r3, .L25+12
 300 00fa 1A68     		ldr	r2, [r3]
ARM GAS  C:\Users\pajoh\AppData\Local\Temp\ccQ0f8tb.s 			page 10


 301 00fc 1346     		mov	r3, r2
 302 00fe 5B00     		lsls	r3, r3, #1
 303 0100 1344     		add	r3, r3, r2
 304 0102 0B44     		add	r3, r3, r1
 305 0104 002B     		cmp	r3, #0
 306 0106 00DA     		bge	.L16
 307 0108 0733     		adds	r3, r3, #7
 308              	.L16:
 309 010a DB10     		asrs	r3, r3, #3
 310 010c 1A46     		mov	r2, r3
 311 010e 604B     		ldr	r3, .L25+36
 312 0110 1A60     		str	r2, [r3]
 214:Generated_Source\PSoC5/tick.c ****         axis_position_filtered_2 = (axis_position_filtered_2 * 15 + axis_position) / 16;
 313              		.loc 1 214 0
 314 0112 604B     		ldr	r3, .L25+40
 315 0114 1A68     		ldr	r2, [r3]
 316 0116 1346     		mov	r3, r2
 317 0118 1B01     		lsls	r3, r3, #4
 318 011a 9A1A     		subs	r2, r3, r2
 319 011c 564B     		ldr	r3, .L25+12
 320 011e 1B68     		ldr	r3, [r3]
 321 0120 1344     		add	r3, r3, r2
 322 0122 002B     		cmp	r3, #0
 323 0124 00DA     		bge	.L17
 324 0126 0F33     		adds	r3, r3, #15
 325              	.L17:
 326 0128 1B11     		asrs	r3, r3, #4
 327 012a 1A46     		mov	r2, r3
 328 012c 594B     		ldr	r3, .L25+40
 329 012e 1A60     		str	r2, [r3]
 215:Generated_Source\PSoC5/tick.c ****         //axis_position = (axis_position_old + axis_position) / 2;
 216:Generated_Source\PSoC5/tick.c ****         
 217:Generated_Source\PSoC5/tick.c ****         #ifdef TORQUE_CTRL
 218:Generated_Source\PSoC5/tick.c ****         if(start_count == 100){
 330              		.loc 1 218 0
 331 0130 564B     		ldr	r3, .L25+32
 332 0132 1B68     		ldr	r3, [r3]
 333 0134 642B     		cmp	r3, #100
 334 0136 7CD1     		bne	.L18
 219:Generated_Source\PSoC5/tick.c ****         count = (count + 1)%10;
 335              		.loc 1 219 0
 336 0138 574B     		ldr	r3, .L25+44
 337 013a 1B68     		ldr	r3, [r3]
 338 013c 591C     		adds	r1, r3, #1
 339 013e 574B     		ldr	r3, .L25+48
 340 0140 83FB0123 		smull	r2, r3, r3, r1
 341 0144 9A10     		asrs	r2, r3, #2
 342 0146 CB17     		asrs	r3, r1, #31
 343 0148 D21A     		subs	r2, r2, r3
 344 014a 1346     		mov	r3, r2
 345 014c 9B00     		lsls	r3, r3, #2
 346 014e 1344     		add	r3, r3, r2
 347 0150 5B00     		lsls	r3, r3, #1
 348 0152 CA1A     		subs	r2, r1, r3
 349 0154 504B     		ldr	r3, .L25+44
 350 0156 1A60     		str	r2, [r3]
 220:Generated_Source\PSoC5/tick.c ****         //if(count == 0){
ARM GAS  C:\Users\pajoh\AppData\Local\Temp\ccQ0f8tb.s 			page 11


 221:Generated_Source\PSoC5/tick.c ****             controller_tick = 1;
 351              		.loc 1 221 0
 352 0158 514B     		ldr	r3, .L25+52
 353 015a 0122     		movs	r2, #1
 354 015c 1A70     		strb	r2, [r3]
 222:Generated_Source\PSoC5/tick.c ****        // }
 223:Generated_Source\PSoC5/tick.c ****         //angle_diff = (int32)angle_electric - (int32)((axis_position & 0xFFFFFFFC) + velocity) * 3
 224:Generated_Source\PSoC5/tick.c ****         angle_diff = angle_electric - (axis_position_filtered * 3200) / 16384;
 355              		.loc 1 224 0
 356 015e 514B     		ldr	r3, .L25+56
 357 0160 1A68     		ldr	r2, [r3]
 358 0162 4B4B     		ldr	r3, .L25+36
 359 0164 1B68     		ldr	r3, [r3]
 360 0166 4FF44861 		mov	r1, #3200
 361 016a 01FB03F3 		mul	r3, r1, r3
 362 016e 002B     		cmp	r3, #0
 363 0170 02DA     		bge	.L19
 364 0172 03F57F53 		add	r3, r3, #16320
 365 0176 3F33     		adds	r3, r3, #63
 366              	.L19:
 367 0178 9B13     		asrs	r3, r3, #14
 368 017a D31A     		subs	r3, r2, r3
 369 017c 4A4A     		ldr	r2, .L25+60
 370 017e 1360     		str	r3, [r2]
 225:Generated_Source\PSoC5/tick.c ****         
 226:Generated_Source\PSoC5/tick.c ****         lead_angle = torque_command - angle_diff;
 371              		.loc 1 226 0
 372 0180 4A4B     		ldr	r3, .L25+64
 373 0182 1A68     		ldr	r2, [r3]
 374 0184 484B     		ldr	r3, .L25+60
 375 0186 1B68     		ldr	r3, [r3]
 376 0188 D31A     		subs	r3, r2, r3
 377 018a 494A     		ldr	r2, .L25+68
 378 018c 1360     		str	r3, [r2]
 227:Generated_Source\PSoC5/tick.c ****             if(lead_angle > 15){
 379              		.loc 1 227 0
 380 018e 484B     		ldr	r3, .L25+68
 381 0190 1B68     		ldr	r3, [r3]
 382 0192 0F2B     		cmp	r3, #15
 383 0194 03DD     		ble	.L20
 228:Generated_Source\PSoC5/tick.c ****                 lead_angle = 15;
 384              		.loc 1 228 0
 385 0196 464B     		ldr	r3, .L25+68
 386 0198 0F22     		movs	r2, #15
 387 019a 1A60     		str	r2, [r3]
 388 019c 08E0     		b	.L21
 389              	.L20:
 229:Generated_Source\PSoC5/tick.c ****             }
 230:Generated_Source\PSoC5/tick.c ****             else if(lead_angle < -15){
 390              		.loc 1 230 0
 391 019e 444B     		ldr	r3, .L25+68
 392 01a0 1B68     		ldr	r3, [r3]
 393 01a2 13F10F0F 		cmn	r3, #15
 394 01a6 03DA     		bge	.L21
 231:Generated_Source\PSoC5/tick.c ****                 lead_angle = -15;
 395              		.loc 1 231 0
 396 01a8 414B     		ldr	r3, .L25+68
ARM GAS  C:\Users\pajoh\AppData\Local\Temp\ccQ0f8tb.s 			page 12


 397 01aa 6FF00E02 		mvn	r2, #14
 398 01ae 1A60     		str	r2, [r3]
 399              	.L21:
 232:Generated_Source\PSoC5/tick.c ****             }
 233:Generated_Source\PSoC5/tick.c ****             if(lead_angle > 0){
 400              		.loc 1 233 0
 401 01b0 3F4B     		ldr	r3, .L25+68
 402 01b2 1B68     		ldr	r3, [r3]
 403 01b4 002B     		cmp	r3, #0
 404 01b6 19DD     		ble	.L22
 234:Generated_Source\PSoC5/tick.c ****                 Direction_Write(1);
 405              		.loc 1 234 0
 406 01b8 0120     		movs	r0, #1
 407 01ba FFF7FEFF 		bl	Direction_Write
 235:Generated_Source\PSoC5/tick.c ****                 CyDelayUs(1);
 408              		.loc 1 235 0
 409 01be 0120     		movs	r0, #1
 410 01c0 FFF7FEFF 		bl	CyDelayUs
 236:Generated_Source\PSoC5/tick.c ****                 ShiftReg_1_Stop();
 411              		.loc 1 236 0
 412 01c4 FFF7FEFF 		bl	ShiftReg_1_Stop
 237:Generated_Source\PSoC5/tick.c ****                 ShiftReg_1_WriteRegValue(step_array[lead_angle]);
 413              		.loc 1 237 0
 414 01c8 394B     		ldr	r3, .L25+68
 415 01ca 1B68     		ldr	r3, [r3]
 416 01cc 394A     		ldr	r2, .L25+72
 417 01ce 52F82330 		ldr	r3, [r2, r3, lsl #2]
 418 01d2 1846     		mov	r0, r3
 419 01d4 FFF7FEFF 		bl	ShiftReg_1_WriteRegValue
 238:Generated_Source\PSoC5/tick.c ****                 ShiftReg_1_Enable();
 420              		.loc 1 238 0
 421 01d8 FFF7FEFF 		bl	ShiftReg_1_Enable
 239:Generated_Source\PSoC5/tick.c ****                 angle_electric += lead_angle;
 422              		.loc 1 239 0
 423 01dc 344B     		ldr	r3, .L25+68
 424 01de 1A68     		ldr	r2, [r3]
 425 01e0 304B     		ldr	r3, .L25+56
 426 01e2 1B68     		ldr	r3, [r3]
 427 01e4 1344     		add	r3, r3, r2
 428 01e6 2F4A     		ldr	r2, .L25+56
 429 01e8 1360     		str	r3, [r2]
 430 01ea 39E0     		b	.L23
 431              	.L22:
 240:Generated_Source\PSoC5/tick.c ****             }
 241:Generated_Source\PSoC5/tick.c ****             else if(lead_angle < 0){
 432              		.loc 1 241 0
 433 01ec 304B     		ldr	r3, .L25+68
 434 01ee 1B68     		ldr	r3, [r3]
 435 01f0 002B     		cmp	r3, #0
 436 01f2 35DA     		bge	.L23
 242:Generated_Source\PSoC5/tick.c ****                 Direction_Write(0);
 437              		.loc 1 242 0
 438 01f4 0020     		movs	r0, #0
 439 01f6 FFF7FEFF 		bl	Direction_Write
 243:Generated_Source\PSoC5/tick.c ****                 CyDelayUs(1);
 440              		.loc 1 243 0
 441 01fa 0120     		movs	r0, #1
ARM GAS  C:\Users\pajoh\AppData\Local\Temp\ccQ0f8tb.s 			page 13


 442 01fc FFF7FEFF 		bl	CyDelayUs
 244:Generated_Source\PSoC5/tick.c ****                 lead_angle *= -1;
 443              		.loc 1 244 0
 444 0200 2B4B     		ldr	r3, .L25+68
 445 0202 1B68     		ldr	r3, [r3]
 446 0204 5B42     		negs	r3, r3
 447 0206 2A4A     		ldr	r2, .L25+68
 448 0208 1360     		str	r3, [r2]
 245:Generated_Source\PSoC5/tick.c ****                 ShiftReg_1_Stop();
 449              		.loc 1 245 0
 450 020a FFF7FEFF 		bl	ShiftReg_1_Stop
 246:Generated_Source\PSoC5/tick.c ****                 ShiftReg_1_WriteRegValue(step_array[lead_angle]);
 451              		.loc 1 246 0
 452 020e 284B     		ldr	r3, .L25+68
 453 0210 1B68     		ldr	r3, [r3]
 454 0212 284A     		ldr	r2, .L25+72
 455 0214 52F82330 		ldr	r3, [r2, r3, lsl #2]
 456 0218 1846     		mov	r0, r3
 457 021a FFF7FEFF 		bl	ShiftReg_1_WriteRegValue
 247:Generated_Source\PSoC5/tick.c ****                 ShiftReg_1_Enable();
 458              		.loc 1 247 0
 459 021e FFF7FEFF 		bl	ShiftReg_1_Enable
 248:Generated_Source\PSoC5/tick.c ****                 angle_electric -= lead_angle;
 460              		.loc 1 248 0
 461 0222 234B     		ldr	r3, .L25+68
 462 0224 1B68     		ldr	r3, [r3]
 463 0226 1F4A     		ldr	r2, .L25+56
 464 0228 1268     		ldr	r2, [r2]
 465 022a D31A     		subs	r3, r2, r3
 466 022c 1D4A     		ldr	r2, .L25+56
 467 022e 1360     		str	r3, [r2]
 468 0230 16E0     		b	.L23
 469              	.L18:
 249:Generated_Source\PSoC5/tick.c ****             }
 250:Generated_Source\PSoC5/tick.c ****             else{
 251:Generated_Source\PSoC5/tick.c ****                 
 252:Generated_Source\PSoC5/tick.c ****             }
 253:Generated_Source\PSoC5/tick.c ****         }
 254:Generated_Source\PSoC5/tick.c ****         else{
 255:Generated_Source\PSoC5/tick.c ****             angle_electric = axis_position * 3200 / 16384;   
 470              		.loc 1 255 0
 471 0232 114B     		ldr	r3, .L25+12
 472 0234 1B68     		ldr	r3, [r3]
 473 0236 4FF44862 		mov	r2, #3200
 474 023a 02FB03F3 		mul	r3, r2, r3
 475 023e 002B     		cmp	r3, #0
 476 0240 02DA     		bge	.L24
 477 0242 03F57F53 		add	r3, r3, #16320
 478 0246 3F33     		adds	r3, r3, #63
 479              	.L24:
 480 0248 9B13     		asrs	r3, r3, #14
 481 024a 1A46     		mov	r2, r3
 482 024c 154B     		ldr	r3, .L25+56
 483 024e 1A60     		str	r2, [r3]
 256:Generated_Source\PSoC5/tick.c ****             axis_position_filtered = axis_position;
 484              		.loc 1 256 0
 485 0250 094B     		ldr	r3, .L25+12
ARM GAS  C:\Users\pajoh\AppData\Local\Temp\ccQ0f8tb.s 			page 14


 486 0252 1B68     		ldr	r3, [r3]
 487 0254 0E4A     		ldr	r2, .L25+36
 488 0256 1360     		str	r3, [r2]
 257:Generated_Source\PSoC5/tick.c ****             axis_position_filtered_2 = axis_position;
 489              		.loc 1 257 0
 490 0258 074B     		ldr	r3, .L25+12
 491 025a 1B68     		ldr	r3, [r3]
 492 025c 0D4A     		ldr	r2, .L25+40
 493 025e 1360     		str	r3, [r2]
 494              	.L23:
 258:Generated_Source\PSoC5/tick.c ****         }
 259:Generated_Source\PSoC5/tick.c ****         #endif
 260:Generated_Source\PSoC5/tick.c ****         Interrupt_t_Write(0);
 495              		.loc 1 260 0
 496 0260 0020     		movs	r0, #0
 497 0262 FFF7FEFF 		bl	Interrupt_t_Write
 261:Generated_Source\PSoC5/tick.c ****         
 262:Generated_Source\PSoC5/tick.c ****     /* `#END` */
 263:Generated_Source\PSoC5/tick.c **** }
 498              		.loc 1 263 0
 499 0266 00BF     		nop
 500 0268 80BD     		pop	{r7, pc}
 501              	.L26:
 502 026a 00BF     		.align	2
 503              	.L25:
 504 026c 00000000 		.word	angle
 505 0270 00000000 		.word	offsetMap
 506 0274 00000000 		.word	read_angle_command
 507 0278 00000000 		.word	axis_position
 508 027c 00000000 		.word	axis_position_old
 509 0280 00000000 		.word	angle_old
 510 0284 F0D8FFFF 		.word	-10000
 511 0288 FF3F0080 		.word	-2147467265
 512 028c 00000000 		.word	start_count
 513 0290 00000000 		.word	axis_position_filtered
 514 0294 00000000 		.word	axis_position_filtered_2
 515 0298 00000000 		.word	count
 516 029c 67666666 		.word	1717986919
 517 02a0 00000000 		.word	controller_tick
 518 02a4 00000000 		.word	angle_electric
 519 02a8 00000000 		.word	angle_diff
 520 02ac 00000000 		.word	torque_command
 521 02b0 00000000 		.word	lead_angle
 522 02b4 00000000 		.word	step_array
 523              		.cfi_endproc
 524              	.LFE3:
 525              		.size	tick_Interrupt, .-tick_Interrupt
 526              		.section	.text.tick_SetVector,"ax",%progbits
 527              		.align	2
 528              		.global	tick_SetVector
 529              		.thumb
 530              		.thumb_func
 531              		.type	tick_SetVector, %function
 532              	tick_SetVector:
 533              	.LFB4:
 264:Generated_Source\PSoC5/tick.c **** 
 265:Generated_Source\PSoC5/tick.c **** 
ARM GAS  C:\Users\pajoh\AppData\Local\Temp\ccQ0f8tb.s 			page 15


 266:Generated_Source\PSoC5/tick.c **** /*******************************************************************************
 267:Generated_Source\PSoC5/tick.c **** * Function Name: tick_SetVector
 268:Generated_Source\PSoC5/tick.c **** ********************************************************************************
 269:Generated_Source\PSoC5/tick.c **** *
 270:Generated_Source\PSoC5/tick.c **** * Summary:
 271:Generated_Source\PSoC5/tick.c **** *   Change the ISR vector for the Interrupt. Note calling tick_Start
 272:Generated_Source\PSoC5/tick.c **** *   will override any effect this method would have had. To set the vector 
 273:Generated_Source\PSoC5/tick.c **** *   before the component has been started use tick_StartEx instead.
 274:Generated_Source\PSoC5/tick.c **** * 
 275:Generated_Source\PSoC5/tick.c **** *   When defining ISR functions, the CY_ISR and CY_ISR_PROTO macros should be 
 276:Generated_Source\PSoC5/tick.c **** *   used to provide consistent definition across compilers:
 277:Generated_Source\PSoC5/tick.c **** *
 278:Generated_Source\PSoC5/tick.c **** *   Function definition example:
 279:Generated_Source\PSoC5/tick.c **** *   CY_ISR(MyISR)
 280:Generated_Source\PSoC5/tick.c **** *   {
 281:Generated_Source\PSoC5/tick.c **** *   }
 282:Generated_Source\PSoC5/tick.c **** *
 283:Generated_Source\PSoC5/tick.c **** *   Function prototype example:
 284:Generated_Source\PSoC5/tick.c **** *     CY_ISR_PROTO(MyISR);
 285:Generated_Source\PSoC5/tick.c **** *
 286:Generated_Source\PSoC5/tick.c **** * Parameters:
 287:Generated_Source\PSoC5/tick.c **** *   address: Address of the ISR to set in the interrupt vector table.
 288:Generated_Source\PSoC5/tick.c **** *
 289:Generated_Source\PSoC5/tick.c **** * Return:
 290:Generated_Source\PSoC5/tick.c **** *   None
 291:Generated_Source\PSoC5/tick.c **** *
 292:Generated_Source\PSoC5/tick.c **** *******************************************************************************/
 293:Generated_Source\PSoC5/tick.c **** void tick_SetVector(cyisraddress address)
 294:Generated_Source\PSoC5/tick.c **** {
 534              		.loc 1 294 0
 535              		.cfi_startproc
 536              		@ args = 0, pretend = 0, frame = 16
 537              		@ frame_needed = 1, uses_anonymous_args = 0
 538              		@ link register save eliminated.
 539 0000 80B4     		push	{r7}
 540              		.cfi_def_cfa_offset 4
 541              		.cfi_offset 7, -4
 542 0002 85B0     		sub	sp, sp, #20
 543              		.cfi_def_cfa_offset 24
 544 0004 00AF     		add	r7, sp, #0
 545              		.cfi_def_cfa_register 7
 546 0006 7860     		str	r0, [r7, #4]
 295:Generated_Source\PSoC5/tick.c ****     cyisraddress * ramVectorTable;
 296:Generated_Source\PSoC5/tick.c **** 
 297:Generated_Source\PSoC5/tick.c ****     ramVectorTable = (cyisraddress *) *CYINT_VECT_TABLE;
 547              		.loc 1 297 0
 548 0008 054B     		ldr	r3, .L28
 549 000a 1B68     		ldr	r3, [r3]
 550 000c FB60     		str	r3, [r7, #12]
 298:Generated_Source\PSoC5/tick.c **** 
 299:Generated_Source\PSoC5/tick.c ****     ramVectorTable[CYINT_IRQ_BASE + (uint32)tick__INTC_NUMBER] = address;
 551              		.loc 1 299 0
 552 000e FB68     		ldr	r3, [r7, #12]
 553 0010 4033     		adds	r3, r3, #64
 554 0012 7A68     		ldr	r2, [r7, #4]
 555 0014 1A60     		str	r2, [r3]
 300:Generated_Source\PSoC5/tick.c **** }
ARM GAS  C:\Users\pajoh\AppData\Local\Temp\ccQ0f8tb.s 			page 16


 556              		.loc 1 300 0
 557 0016 00BF     		nop
 558 0018 1437     		adds	r7, r7, #20
 559              		.cfi_def_cfa_offset 4
 560 001a BD46     		mov	sp, r7
 561              		.cfi_def_cfa_register 13
 562              		@ sp needed
 563 001c 80BC     		pop	{r7}
 564              		.cfi_restore 7
 565              		.cfi_def_cfa_offset 0
 566 001e 7047     		bx	lr
 567              	.L29:
 568              		.align	2
 569              	.L28:
 570 0020 08ED00E0 		.word	-536810232
 571              		.cfi_endproc
 572              	.LFE4:
 573              		.size	tick_SetVector, .-tick_SetVector
 574              		.section	.text.tick_GetVector,"ax",%progbits
 575              		.align	2
 576              		.global	tick_GetVector
 577              		.thumb
 578              		.thumb_func
 579              		.type	tick_GetVector, %function
 580              	tick_GetVector:
 581              	.LFB5:
 301:Generated_Source\PSoC5/tick.c **** 
 302:Generated_Source\PSoC5/tick.c **** 
 303:Generated_Source\PSoC5/tick.c **** /*******************************************************************************
 304:Generated_Source\PSoC5/tick.c **** * Function Name: tick_GetVector
 305:Generated_Source\PSoC5/tick.c **** ********************************************************************************
 306:Generated_Source\PSoC5/tick.c **** *
 307:Generated_Source\PSoC5/tick.c **** * Summary:
 308:Generated_Source\PSoC5/tick.c **** *   Gets the "address" of the current ISR vector for the Interrupt.
 309:Generated_Source\PSoC5/tick.c **** *
 310:Generated_Source\PSoC5/tick.c **** * Parameters:
 311:Generated_Source\PSoC5/tick.c **** *   None
 312:Generated_Source\PSoC5/tick.c **** *
 313:Generated_Source\PSoC5/tick.c **** * Return:
 314:Generated_Source\PSoC5/tick.c **** *   Address of the ISR in the interrupt vector table.
 315:Generated_Source\PSoC5/tick.c **** *
 316:Generated_Source\PSoC5/tick.c **** *******************************************************************************/
 317:Generated_Source\PSoC5/tick.c **** cyisraddress tick_GetVector(void)
 318:Generated_Source\PSoC5/tick.c **** {
 582              		.loc 1 318 0
 583              		.cfi_startproc
 584              		@ args = 0, pretend = 0, frame = 8
 585              		@ frame_needed = 1, uses_anonymous_args = 0
 586              		@ link register save eliminated.
 587 0000 80B4     		push	{r7}
 588              		.cfi_def_cfa_offset 4
 589              		.cfi_offset 7, -4
 590 0002 83B0     		sub	sp, sp, #12
 591              		.cfi_def_cfa_offset 16
 592 0004 00AF     		add	r7, sp, #0
 593              		.cfi_def_cfa_register 7
 319:Generated_Source\PSoC5/tick.c ****     cyisraddress * ramVectorTable;
ARM GAS  C:\Users\pajoh\AppData\Local\Temp\ccQ0f8tb.s 			page 17


 320:Generated_Source\PSoC5/tick.c **** 
 321:Generated_Source\PSoC5/tick.c ****     ramVectorTable = (cyisraddress *) *CYINT_VECT_TABLE;
 594              		.loc 1 321 0
 595 0006 054B     		ldr	r3, .L32
 596 0008 1B68     		ldr	r3, [r3]
 597 000a 7B60     		str	r3, [r7, #4]
 322:Generated_Source\PSoC5/tick.c **** 
 323:Generated_Source\PSoC5/tick.c ****     return ramVectorTable[CYINT_IRQ_BASE + (uint32)tick__INTC_NUMBER];
 598              		.loc 1 323 0
 599 000c 7B68     		ldr	r3, [r7, #4]
 600 000e 1B6C     		ldr	r3, [r3, #64]
 324:Generated_Source\PSoC5/tick.c **** }
 601              		.loc 1 324 0
 602 0010 1846     		mov	r0, r3
 603 0012 0C37     		adds	r7, r7, #12
 604              		.cfi_def_cfa_offset 4
 605 0014 BD46     		mov	sp, r7
 606              		.cfi_def_cfa_register 13
 607              		@ sp needed
 608 0016 80BC     		pop	{r7}
 609              		.cfi_restore 7
 610              		.cfi_def_cfa_offset 0
 611 0018 7047     		bx	lr
 612              	.L33:
 613 001a 00BF     		.align	2
 614              	.L32:
 615 001c 08ED00E0 		.word	-536810232
 616              		.cfi_endproc
 617              	.LFE5:
 618              		.size	tick_GetVector, .-tick_GetVector
 619              		.section	.text.tick_SetPriority,"ax",%progbits
 620              		.align	2
 621              		.global	tick_SetPriority
 622              		.thumb
 623              		.thumb_func
 624              		.type	tick_SetPriority, %function
 625              	tick_SetPriority:
 626              	.LFB6:
 325:Generated_Source\PSoC5/tick.c **** 
 326:Generated_Source\PSoC5/tick.c **** 
 327:Generated_Source\PSoC5/tick.c **** /*******************************************************************************
 328:Generated_Source\PSoC5/tick.c **** * Function Name: tick_SetPriority
 329:Generated_Source\PSoC5/tick.c **** ********************************************************************************
 330:Generated_Source\PSoC5/tick.c **** *
 331:Generated_Source\PSoC5/tick.c **** * Summary:
 332:Generated_Source\PSoC5/tick.c **** *   Sets the Priority of the Interrupt. 
 333:Generated_Source\PSoC5/tick.c **** *
 334:Generated_Source\PSoC5/tick.c **** *   Note calling tick_Start or tick_StartEx will 
 335:Generated_Source\PSoC5/tick.c **** *   override any effect this API would have had. This API should only be called
 336:Generated_Source\PSoC5/tick.c **** *   after tick_Start or tick_StartEx has been called. 
 337:Generated_Source\PSoC5/tick.c **** *   To set the initial priority for the component, use the Design-Wide Resources
 338:Generated_Source\PSoC5/tick.c **** *   Interrupt Editor.
 339:Generated_Source\PSoC5/tick.c **** *
 340:Generated_Source\PSoC5/tick.c **** *   Note This API has no effect on Non-maskable interrupt NMI).
 341:Generated_Source\PSoC5/tick.c **** *
 342:Generated_Source\PSoC5/tick.c **** * Parameters:
 343:Generated_Source\PSoC5/tick.c **** *   priority: Priority of the interrupt, 0 being the highest priority
ARM GAS  C:\Users\pajoh\AppData\Local\Temp\ccQ0f8tb.s 			page 18


 344:Generated_Source\PSoC5/tick.c **** *             PSoC 3 and PSoC 5LP: Priority is from 0 to 7.
 345:Generated_Source\PSoC5/tick.c **** *             PSoC 4: Priority is from 0 to 3.
 346:Generated_Source\PSoC5/tick.c **** *
 347:Generated_Source\PSoC5/tick.c **** * Return:
 348:Generated_Source\PSoC5/tick.c **** *   None
 349:Generated_Source\PSoC5/tick.c **** *
 350:Generated_Source\PSoC5/tick.c **** *******************************************************************************/
 351:Generated_Source\PSoC5/tick.c **** void tick_SetPriority(uint8 priority)
 352:Generated_Source\PSoC5/tick.c **** {
 627              		.loc 1 352 0
 628              		.cfi_startproc
 629              		@ args = 0, pretend = 0, frame = 8
 630              		@ frame_needed = 1, uses_anonymous_args = 0
 631              		@ link register save eliminated.
 632 0000 80B4     		push	{r7}
 633              		.cfi_def_cfa_offset 4
 634              		.cfi_offset 7, -4
 635 0002 83B0     		sub	sp, sp, #12
 636              		.cfi_def_cfa_offset 16
 637 0004 00AF     		add	r7, sp, #0
 638              		.cfi_def_cfa_register 7
 639 0006 0346     		mov	r3, r0
 640 0008 FB71     		strb	r3, [r7, #7]
 353:Generated_Source\PSoC5/tick.c ****     *tick_INTC_PRIOR = priority << 5;
 641              		.loc 1 353 0
 642 000a 054A     		ldr	r2, .L35
 643 000c FB79     		ldrb	r3, [r7, #7]
 644 000e 5B01     		lsls	r3, r3, #5
 645 0010 DBB2     		uxtb	r3, r3
 646 0012 1370     		strb	r3, [r2]
 354:Generated_Source\PSoC5/tick.c **** }
 647              		.loc 1 354 0
 648 0014 00BF     		nop
 649 0016 0C37     		adds	r7, r7, #12
 650              		.cfi_def_cfa_offset 4
 651 0018 BD46     		mov	sp, r7
 652              		.cfi_def_cfa_register 13
 653              		@ sp needed
 654 001a 80BC     		pop	{r7}
 655              		.cfi_restore 7
 656              		.cfi_def_cfa_offset 0
 657 001c 7047     		bx	lr
 658              	.L36:
 659 001e 00BF     		.align	2
 660              	.L35:
 661 0020 00E400E0 		.word	-536812544
 662              		.cfi_endproc
 663              	.LFE6:
 664              		.size	tick_SetPriority, .-tick_SetPriority
 665              		.section	.text.tick_GetPriority,"ax",%progbits
 666              		.align	2
 667              		.global	tick_GetPriority
 668              		.thumb
 669              		.thumb_func
 670              		.type	tick_GetPriority, %function
 671              	tick_GetPriority:
 672              	.LFB7:
ARM GAS  C:\Users\pajoh\AppData\Local\Temp\ccQ0f8tb.s 			page 19


 355:Generated_Source\PSoC5/tick.c **** 
 356:Generated_Source\PSoC5/tick.c **** 
 357:Generated_Source\PSoC5/tick.c **** /*******************************************************************************
 358:Generated_Source\PSoC5/tick.c **** * Function Name: tick_GetPriority
 359:Generated_Source\PSoC5/tick.c **** ********************************************************************************
 360:Generated_Source\PSoC5/tick.c **** *
 361:Generated_Source\PSoC5/tick.c **** * Summary:
 362:Generated_Source\PSoC5/tick.c **** *   Gets the Priority of the Interrupt.
 363:Generated_Source\PSoC5/tick.c **** *
 364:Generated_Source\PSoC5/tick.c **** * Parameters:
 365:Generated_Source\PSoC5/tick.c **** *   None
 366:Generated_Source\PSoC5/tick.c **** *
 367:Generated_Source\PSoC5/tick.c **** * Return:
 368:Generated_Source\PSoC5/tick.c **** *   Priority of the interrupt, 0 being the highest priority
 369:Generated_Source\PSoC5/tick.c **** *    PSoC 3 and PSoC 5LP: Priority is from 0 to 7.
 370:Generated_Source\PSoC5/tick.c **** *    PSoC 4: Priority is from 0 to 3.
 371:Generated_Source\PSoC5/tick.c **** *
 372:Generated_Source\PSoC5/tick.c **** *******************************************************************************/
 373:Generated_Source\PSoC5/tick.c **** uint8 tick_GetPriority(void)
 374:Generated_Source\PSoC5/tick.c **** {
 673              		.loc 1 374 0
 674              		.cfi_startproc
 675              		@ args = 0, pretend = 0, frame = 8
 676              		@ frame_needed = 1, uses_anonymous_args = 0
 677              		@ link register save eliminated.
 678 0000 80B4     		push	{r7}
 679              		.cfi_def_cfa_offset 4
 680              		.cfi_offset 7, -4
 681 0002 83B0     		sub	sp, sp, #12
 682              		.cfi_def_cfa_offset 16
 683 0004 00AF     		add	r7, sp, #0
 684              		.cfi_def_cfa_register 7
 375:Generated_Source\PSoC5/tick.c ****     uint8 priority;
 376:Generated_Source\PSoC5/tick.c **** 
 377:Generated_Source\PSoC5/tick.c **** 
 378:Generated_Source\PSoC5/tick.c ****     priority = *tick_INTC_PRIOR >> 5;
 685              		.loc 1 378 0
 686 0006 054B     		ldr	r3, .L39
 687 0008 1B78     		ldrb	r3, [r3]
 688 000a DBB2     		uxtb	r3, r3
 689 000c 5B09     		lsrs	r3, r3, #5
 690 000e FB71     		strb	r3, [r7, #7]
 379:Generated_Source\PSoC5/tick.c **** 
 380:Generated_Source\PSoC5/tick.c ****     return priority;
 691              		.loc 1 380 0
 692 0010 FB79     		ldrb	r3, [r7, #7]	@ zero_extendqisi2
 381:Generated_Source\PSoC5/tick.c **** }
 693              		.loc 1 381 0
 694 0012 1846     		mov	r0, r3
 695 0014 0C37     		adds	r7, r7, #12
 696              		.cfi_def_cfa_offset 4
 697 0016 BD46     		mov	sp, r7
 698              		.cfi_def_cfa_register 13
 699              		@ sp needed
 700 0018 80BC     		pop	{r7}
 701              		.cfi_restore 7
 702              		.cfi_def_cfa_offset 0
ARM GAS  C:\Users\pajoh\AppData\Local\Temp\ccQ0f8tb.s 			page 20


 703 001a 7047     		bx	lr
 704              	.L40:
 705              		.align	2
 706              	.L39:
 707 001c 00E400E0 		.word	-536812544
 708              		.cfi_endproc
 709              	.LFE7:
 710              		.size	tick_GetPriority, .-tick_GetPriority
 711              		.section	.text.tick_Enable,"ax",%progbits
 712              		.align	2
 713              		.global	tick_Enable
 714              		.thumb
 715              		.thumb_func
 716              		.type	tick_Enable, %function
 717              	tick_Enable:
 718              	.LFB8:
 382:Generated_Source\PSoC5/tick.c **** 
 383:Generated_Source\PSoC5/tick.c **** 
 384:Generated_Source\PSoC5/tick.c **** /*******************************************************************************
 385:Generated_Source\PSoC5/tick.c **** * Function Name: tick_Enable
 386:Generated_Source\PSoC5/tick.c **** ********************************************************************************
 387:Generated_Source\PSoC5/tick.c **** *
 388:Generated_Source\PSoC5/tick.c **** * Summary:
 389:Generated_Source\PSoC5/tick.c **** *   Enables the interrupt to the interrupt controller. Do not call this function
 390:Generated_Source\PSoC5/tick.c **** *   unless ISR_Start() has been called or the functionality of the ISR_Start() 
 391:Generated_Source\PSoC5/tick.c **** *   function, which sets the vector and the priority, has been called.
 392:Generated_Source\PSoC5/tick.c **** *
 393:Generated_Source\PSoC5/tick.c **** * Parameters:
 394:Generated_Source\PSoC5/tick.c **** *   None
 395:Generated_Source\PSoC5/tick.c **** *
 396:Generated_Source\PSoC5/tick.c **** * Return:
 397:Generated_Source\PSoC5/tick.c **** *   None
 398:Generated_Source\PSoC5/tick.c **** *
 399:Generated_Source\PSoC5/tick.c **** *******************************************************************************/
 400:Generated_Source\PSoC5/tick.c **** void tick_Enable(void)
 401:Generated_Source\PSoC5/tick.c **** {
 719              		.loc 1 401 0
 720              		.cfi_startproc
 721              		@ args = 0, pretend = 0, frame = 0
 722              		@ frame_needed = 1, uses_anonymous_args = 0
 723              		@ link register save eliminated.
 724 0000 80B4     		push	{r7}
 725              		.cfi_def_cfa_offset 4
 726              		.cfi_offset 7, -4
 727 0002 00AF     		add	r7, sp, #0
 728              		.cfi_def_cfa_register 7
 402:Generated_Source\PSoC5/tick.c ****     /* Enable the general interrupt. */
 403:Generated_Source\PSoC5/tick.c ****     *tick_INTC_SET_EN = tick__INTC_MASK;
 729              		.loc 1 403 0
 730 0004 034B     		ldr	r3, .L42
 731 0006 0122     		movs	r2, #1
 732 0008 1A60     		str	r2, [r3]
 404:Generated_Source\PSoC5/tick.c **** }
 733              		.loc 1 404 0
 734 000a 00BF     		nop
 735 000c BD46     		mov	sp, r7
 736              		.cfi_def_cfa_register 13
ARM GAS  C:\Users\pajoh\AppData\Local\Temp\ccQ0f8tb.s 			page 21


 737              		@ sp needed
 738 000e 80BC     		pop	{r7}
 739              		.cfi_restore 7
 740              		.cfi_def_cfa_offset 0
 741 0010 7047     		bx	lr
 742              	.L43:
 743 0012 00BF     		.align	2
 744              	.L42:
 745 0014 00E100E0 		.word	-536813312
 746              		.cfi_endproc
 747              	.LFE8:
 748              		.size	tick_Enable, .-tick_Enable
 749              		.section	.text.tick_GetState,"ax",%progbits
 750              		.align	2
 751              		.global	tick_GetState
 752              		.thumb
 753              		.thumb_func
 754              		.type	tick_GetState, %function
 755              	tick_GetState:
 756              	.LFB9:
 405:Generated_Source\PSoC5/tick.c **** 
 406:Generated_Source\PSoC5/tick.c **** 
 407:Generated_Source\PSoC5/tick.c **** /*******************************************************************************
 408:Generated_Source\PSoC5/tick.c **** * Function Name: tick_GetState
 409:Generated_Source\PSoC5/tick.c **** ********************************************************************************
 410:Generated_Source\PSoC5/tick.c **** *
 411:Generated_Source\PSoC5/tick.c **** * Summary:
 412:Generated_Source\PSoC5/tick.c **** *   Gets the state (enabled, disabled) of the Interrupt.
 413:Generated_Source\PSoC5/tick.c **** *
 414:Generated_Source\PSoC5/tick.c **** * Parameters:
 415:Generated_Source\PSoC5/tick.c **** *   None
 416:Generated_Source\PSoC5/tick.c **** *
 417:Generated_Source\PSoC5/tick.c **** * Return:
 418:Generated_Source\PSoC5/tick.c **** *   1 if enabled, 0 if disabled.
 419:Generated_Source\PSoC5/tick.c **** *
 420:Generated_Source\PSoC5/tick.c **** *******************************************************************************/
 421:Generated_Source\PSoC5/tick.c **** uint8 tick_GetState(void)
 422:Generated_Source\PSoC5/tick.c **** {
 757              		.loc 1 422 0
 758              		.cfi_startproc
 759              		@ args = 0, pretend = 0, frame = 0
 760              		@ frame_needed = 1, uses_anonymous_args = 0
 761              		@ link register save eliminated.
 762 0000 80B4     		push	{r7}
 763              		.cfi_def_cfa_offset 4
 764              		.cfi_offset 7, -4
 765 0002 00AF     		add	r7, sp, #0
 766              		.cfi_def_cfa_register 7
 423:Generated_Source\PSoC5/tick.c ****     /* Get the state of the general interrupt. */
 424:Generated_Source\PSoC5/tick.c ****     return ((*tick_INTC_SET_EN & (uint32)tick__INTC_MASK) != 0u) ? 1u:0u;
 767              		.loc 1 424 0
 768 0004 044B     		ldr	r3, .L46
 769 0006 1B68     		ldr	r3, [r3]
 770 0008 DBB2     		uxtb	r3, r3
 771 000a 03F00103 		and	r3, r3, #1
 772 000e DBB2     		uxtb	r3, r3
 425:Generated_Source\PSoC5/tick.c **** }
ARM GAS  C:\Users\pajoh\AppData\Local\Temp\ccQ0f8tb.s 			page 22


 773              		.loc 1 425 0
 774 0010 1846     		mov	r0, r3
 775 0012 BD46     		mov	sp, r7
 776              		.cfi_def_cfa_register 13
 777              		@ sp needed
 778 0014 80BC     		pop	{r7}
 779              		.cfi_restore 7
 780              		.cfi_def_cfa_offset 0
 781 0016 7047     		bx	lr
 782              	.L47:
 783              		.align	2
 784              	.L46:
 785 0018 00E100E0 		.word	-536813312
 786              		.cfi_endproc
 787              	.LFE9:
 788              		.size	tick_GetState, .-tick_GetState
 789              		.section	.text.tick_Disable,"ax",%progbits
 790              		.align	2
 791              		.global	tick_Disable
 792              		.thumb
 793              		.thumb_func
 794              		.type	tick_Disable, %function
 795              	tick_Disable:
 796              	.LFB10:
 426:Generated_Source\PSoC5/tick.c **** 
 427:Generated_Source\PSoC5/tick.c **** 
 428:Generated_Source\PSoC5/tick.c **** /*******************************************************************************
 429:Generated_Source\PSoC5/tick.c **** * Function Name: tick_Disable
 430:Generated_Source\PSoC5/tick.c **** ********************************************************************************
 431:Generated_Source\PSoC5/tick.c **** *
 432:Generated_Source\PSoC5/tick.c **** * Summary:
 433:Generated_Source\PSoC5/tick.c **** *   Disables the Interrupt in the interrupt controller.
 434:Generated_Source\PSoC5/tick.c **** *
 435:Generated_Source\PSoC5/tick.c **** * Parameters:
 436:Generated_Source\PSoC5/tick.c **** *   None
 437:Generated_Source\PSoC5/tick.c **** *
 438:Generated_Source\PSoC5/tick.c **** * Return:
 439:Generated_Source\PSoC5/tick.c **** *   None
 440:Generated_Source\PSoC5/tick.c **** *
 441:Generated_Source\PSoC5/tick.c **** *******************************************************************************/
 442:Generated_Source\PSoC5/tick.c **** void tick_Disable(void)
 443:Generated_Source\PSoC5/tick.c **** {
 797              		.loc 1 443 0
 798              		.cfi_startproc
 799              		@ args = 0, pretend = 0, frame = 0
 800              		@ frame_needed = 1, uses_anonymous_args = 0
 801              		@ link register save eliminated.
 802 0000 80B4     		push	{r7}
 803              		.cfi_def_cfa_offset 4
 804              		.cfi_offset 7, -4
 805 0002 00AF     		add	r7, sp, #0
 806              		.cfi_def_cfa_register 7
 444:Generated_Source\PSoC5/tick.c ****     /* Disable the general interrupt. */
 445:Generated_Source\PSoC5/tick.c ****     *tick_INTC_CLR_EN = tick__INTC_MASK;
 807              		.loc 1 445 0
 808 0004 034B     		ldr	r3, .L49
 809 0006 0122     		movs	r2, #1
ARM GAS  C:\Users\pajoh\AppData\Local\Temp\ccQ0f8tb.s 			page 23


 810 0008 1A60     		str	r2, [r3]
 446:Generated_Source\PSoC5/tick.c **** }
 811              		.loc 1 446 0
 812 000a 00BF     		nop
 813 000c BD46     		mov	sp, r7
 814              		.cfi_def_cfa_register 13
 815              		@ sp needed
 816 000e 80BC     		pop	{r7}
 817              		.cfi_restore 7
 818              		.cfi_def_cfa_offset 0
 819 0010 7047     		bx	lr
 820              	.L50:
 821 0012 00BF     		.align	2
 822              	.L49:
 823 0014 80E100E0 		.word	-536813184
 824              		.cfi_endproc
 825              	.LFE10:
 826              		.size	tick_Disable, .-tick_Disable
 827              		.section	.text.tick_SetPending,"ax",%progbits
 828              		.align	2
 829              		.global	tick_SetPending
 830              		.thumb
 831              		.thumb_func
 832              		.type	tick_SetPending, %function
 833              	tick_SetPending:
 834              	.LFB11:
 447:Generated_Source\PSoC5/tick.c **** 
 448:Generated_Source\PSoC5/tick.c **** 
 449:Generated_Source\PSoC5/tick.c **** /*******************************************************************************
 450:Generated_Source\PSoC5/tick.c **** * Function Name: tick_SetPending
 451:Generated_Source\PSoC5/tick.c **** ********************************************************************************
 452:Generated_Source\PSoC5/tick.c **** *
 453:Generated_Source\PSoC5/tick.c **** * Summary:
 454:Generated_Source\PSoC5/tick.c **** *   Causes the Interrupt to enter the pending state, a software method of
 455:Generated_Source\PSoC5/tick.c **** *   generating the interrupt.
 456:Generated_Source\PSoC5/tick.c **** *
 457:Generated_Source\PSoC5/tick.c **** * Parameters:
 458:Generated_Source\PSoC5/tick.c **** *   None
 459:Generated_Source\PSoC5/tick.c **** *
 460:Generated_Source\PSoC5/tick.c **** * Return:
 461:Generated_Source\PSoC5/tick.c **** *   None
 462:Generated_Source\PSoC5/tick.c **** *
 463:Generated_Source\PSoC5/tick.c **** * Side Effects:
 464:Generated_Source\PSoC5/tick.c **** *   If interrupts are enabled and the interrupt is set up properly, the ISR is
 465:Generated_Source\PSoC5/tick.c **** *   entered (depending on the priority of this interrupt and other pending 
 466:Generated_Source\PSoC5/tick.c **** *   interrupts).
 467:Generated_Source\PSoC5/tick.c **** *
 468:Generated_Source\PSoC5/tick.c **** *******************************************************************************/
 469:Generated_Source\PSoC5/tick.c **** void tick_SetPending(void)
 470:Generated_Source\PSoC5/tick.c **** {
 835              		.loc 1 470 0
 836              		.cfi_startproc
 837              		@ args = 0, pretend = 0, frame = 0
 838              		@ frame_needed = 1, uses_anonymous_args = 0
 839              		@ link register save eliminated.
 840 0000 80B4     		push	{r7}
 841              		.cfi_def_cfa_offset 4
ARM GAS  C:\Users\pajoh\AppData\Local\Temp\ccQ0f8tb.s 			page 24


 842              		.cfi_offset 7, -4
 843 0002 00AF     		add	r7, sp, #0
 844              		.cfi_def_cfa_register 7
 471:Generated_Source\PSoC5/tick.c ****     *tick_INTC_SET_PD = tick__INTC_MASK;
 845              		.loc 1 471 0
 846 0004 034B     		ldr	r3, .L52
 847 0006 0122     		movs	r2, #1
 848 0008 1A60     		str	r2, [r3]
 472:Generated_Source\PSoC5/tick.c **** }
 849              		.loc 1 472 0
 850 000a 00BF     		nop
 851 000c BD46     		mov	sp, r7
 852              		.cfi_def_cfa_register 13
 853              		@ sp needed
 854 000e 80BC     		pop	{r7}
 855              		.cfi_restore 7
 856              		.cfi_def_cfa_offset 0
 857 0010 7047     		bx	lr
 858              	.L53:
 859 0012 00BF     		.align	2
 860              	.L52:
 861 0014 00E200E0 		.word	-536813056
 862              		.cfi_endproc
 863              	.LFE11:
 864              		.size	tick_SetPending, .-tick_SetPending
 865              		.section	.text.tick_ClearPending,"ax",%progbits
 866              		.align	2
 867              		.global	tick_ClearPending
 868              		.thumb
 869              		.thumb_func
 870              		.type	tick_ClearPending, %function
 871              	tick_ClearPending:
 872              	.LFB12:
 473:Generated_Source\PSoC5/tick.c **** 
 474:Generated_Source\PSoC5/tick.c **** 
 475:Generated_Source\PSoC5/tick.c **** /*******************************************************************************
 476:Generated_Source\PSoC5/tick.c **** * Function Name: tick_ClearPending
 477:Generated_Source\PSoC5/tick.c **** ********************************************************************************
 478:Generated_Source\PSoC5/tick.c **** *
 479:Generated_Source\PSoC5/tick.c **** * Summary:
 480:Generated_Source\PSoC5/tick.c **** *   Clears a pending interrupt in the interrupt controller.
 481:Generated_Source\PSoC5/tick.c **** *
 482:Generated_Source\PSoC5/tick.c **** *   Note Some interrupt sources are clear-on-read and require the block 
 483:Generated_Source\PSoC5/tick.c **** *   interrupt/status register to be read/cleared with the appropriate block API 
 484:Generated_Source\PSoC5/tick.c **** *   (GPIO, UART, and so on). Otherwise the ISR will continue to remain in 
 485:Generated_Source\PSoC5/tick.c **** *   pending state even though the interrupt itself is cleared using this API.
 486:Generated_Source\PSoC5/tick.c **** *
 487:Generated_Source\PSoC5/tick.c **** * Parameters:
 488:Generated_Source\PSoC5/tick.c **** *   None
 489:Generated_Source\PSoC5/tick.c **** *
 490:Generated_Source\PSoC5/tick.c **** * Return:
 491:Generated_Source\PSoC5/tick.c **** *   None
 492:Generated_Source\PSoC5/tick.c **** *
 493:Generated_Source\PSoC5/tick.c **** *******************************************************************************/
 494:Generated_Source\PSoC5/tick.c **** void tick_ClearPending(void)
 495:Generated_Source\PSoC5/tick.c **** {
 873              		.loc 1 495 0
ARM GAS  C:\Users\pajoh\AppData\Local\Temp\ccQ0f8tb.s 			page 25


 874              		.cfi_startproc
 875              		@ args = 0, pretend = 0, frame = 0
 876              		@ frame_needed = 1, uses_anonymous_args = 0
 877              		@ link register save eliminated.
 878 0000 80B4     		push	{r7}
 879              		.cfi_def_cfa_offset 4
 880              		.cfi_offset 7, -4
 881 0002 00AF     		add	r7, sp, #0
 882              		.cfi_def_cfa_register 7
 496:Generated_Source\PSoC5/tick.c ****     *tick_INTC_CLR_PD = tick__INTC_MASK;
 883              		.loc 1 496 0
 884 0004 034B     		ldr	r3, .L55
 885 0006 0122     		movs	r2, #1
 886 0008 1A60     		str	r2, [r3]
 497:Generated_Source\PSoC5/tick.c **** }
 887              		.loc 1 497 0
 888 000a 00BF     		nop
 889 000c BD46     		mov	sp, r7
 890              		.cfi_def_cfa_register 13
 891              		@ sp needed
 892 000e 80BC     		pop	{r7}
 893              		.cfi_restore 7
 894              		.cfi_def_cfa_offset 0
 895 0010 7047     		bx	lr
 896              	.L56:
 897 0012 00BF     		.align	2
 898              	.L55:
 899 0014 80E200E0 		.word	-536812928
 900              		.cfi_endproc
 901              	.LFE12:
 902              		.size	tick_ClearPending, .-tick_ClearPending
 903              		.text
 904              	.Letext0:
 905              		.file 2 "Generated_Source\\PSoC5/cytypes.h"