ARM GAS  C:\Users\pajoh\AppData\Local\Temp\ccpfK10Z.s 			page 1


   1              		.syntax unified
   2              		.cpu cortex-m3
   3              		.fpu softvfp
   4              		.eabi_attribute 20, 1
   5              		.eabi_attribute 21, 1
   6              		.eabi_attribute 23, 3
   7              		.eabi_attribute 24, 1
   8              		.eabi_attribute 25, 1
   9              		.eabi_attribute 26, 1
  10              		.eabi_attribute 30, 6
  11              		.eabi_attribute 34, 1
  12              		.eabi_attribute 18, 4
  13              		.thumb
  14              		.syntax unified
  15              		.file	"tick.c"
  16              		.text
  17              	.Ltext0:
  18              		.cfi_sections	.debug_frame
  19              		.global	angle_old
  20              		.bss
  21              		.align	2
  22              		.type	angle_old, %object
  23              		.size	angle_old, 4
  24              	angle_old:
  25 0000 00000000 		.space	4
  26              		.global	axis_position_old
  27              		.align	2
  28              		.type	axis_position_old, %object
  29              		.size	axis_position_old, 4
  30              	axis_position_old:
  31 0004 00000000 		.space	4
  32              		.comm	start_count,4,4
  33              		.comm	count,4,4
  34              		.section	.text.tick_Start,"ax",%progbits
  35              		.align	2
  36              		.global	tick_Start
  37              		.thumb
  38              		.thumb_func
  39              		.type	tick_Start, %function
  40              	tick_Start:
  41              	.LFB0:
  42              		.file 1 "Generated_Source\\PSoC5\\tick.c"
   1:Generated_Source\PSoC5/tick.c **** /*******************************************************************************
   2:Generated_Source\PSoC5/tick.c **** * File Name: tick.c  
   3:Generated_Source\PSoC5/tick.c **** * Version 1.70
   4:Generated_Source\PSoC5/tick.c **** *
   5:Generated_Source\PSoC5/tick.c **** *  Description:
   6:Generated_Source\PSoC5/tick.c **** *   API for controlling the state of an interrupt.
   7:Generated_Source\PSoC5/tick.c **** *
   8:Generated_Source\PSoC5/tick.c **** *
   9:Generated_Source\PSoC5/tick.c **** *  Note:
  10:Generated_Source\PSoC5/tick.c **** *
  11:Generated_Source\PSoC5/tick.c **** ********************************************************************************
  12:Generated_Source\PSoC5/tick.c **** * Copyright 2008-2015, Cypress Semiconductor Corporation.  All rights reserved.
  13:Generated_Source\PSoC5/tick.c **** * You may use this file only in accordance with the license, terms, conditions, 
  14:Generated_Source\PSoC5/tick.c **** * disclaimers, and limitations in the end user license agreement accompanying 
  15:Generated_Source\PSoC5/tick.c **** * the software package with which this file was provided.
ARM GAS  C:\Users\pajoh\AppData\Local\Temp\ccpfK10Z.s 			page 2


  16:Generated_Source\PSoC5/tick.c **** *******************************************************************************/
  17:Generated_Source\PSoC5/tick.c **** 
  18:Generated_Source\PSoC5/tick.c **** 
  19:Generated_Source\PSoC5/tick.c **** #include <cydevice_trm.h>
  20:Generated_Source\PSoC5/tick.c **** #include <CyLib.h>
  21:Generated_Source\PSoC5/tick.c **** #include <tick.h>
  22:Generated_Source\PSoC5/tick.c **** #include "cyapicallbacks.h"
  23:Generated_Source\PSoC5/tick.c **** 
  24:Generated_Source\PSoC5/tick.c **** #if !defined(tick__REMOVED) /* Check for removal by optimization */
  25:Generated_Source\PSoC5/tick.c **** 
  26:Generated_Source\PSoC5/tick.c **** /*******************************************************************************
  27:Generated_Source\PSoC5/tick.c **** *  Place your includes, defines and code here 
  28:Generated_Source\PSoC5/tick.c **** ********************************************************************************/
  29:Generated_Source\PSoC5/tick.c **** /* `#START tick_intc` */
  30:Generated_Source\PSoC5/tick.c ****     #include "SPIM.h"
  31:Generated_Source\PSoC5/tick.c ****     #include "ShiftReg_1.h"
  32:Generated_Source\PSoC5/tick.c ****     #include "Direction.h"
  33:Generated_Source\PSoC5/tick.c ****     #include "Interrupt_t.h"
  34:Generated_Source\PSoC5/tick.c ****     #define TORQUE_CTRL
  35:Generated_Source\PSoC5/tick.c ****     extern volatile uint8 controller_tick;
  36:Generated_Source\PSoC5/tick.c ****     extern volatile int32 angle;
  37:Generated_Source\PSoC5/tick.c ****     extern volatile uint16 read_angle_command;
  38:Generated_Source\PSoC5/tick.c ****     extern volatile int32 lead_angle;
  39:Generated_Source\PSoC5/tick.c ****     extern volatile uint32 step_array[17];
  40:Generated_Source\PSoC5/tick.c ****     extern volatile int32 angle_electric;
  41:Generated_Source\PSoC5/tick.c ****     extern volatile int32 angle_diff;
  42:Generated_Source\PSoC5/tick.c ****     extern volatile int32 torque_command;
  43:Generated_Source\PSoC5/tick.c ****     extern volatile int32 axis_position;
  44:Generated_Source\PSoC5/tick.c ****     extern volatile int32 offsetMap[512];
  45:Generated_Source\PSoC5/tick.c ****     volatile int32 angle_old = 0;
  46:Generated_Source\PSoC5/tick.c ****     volatile int32 axis_position_old = 0;
  47:Generated_Source\PSoC5/tick.c ****     extern volatile int32 axis_position_filtered;
  48:Generated_Source\PSoC5/tick.c ****     int start_count;
  49:Generated_Source\PSoC5/tick.c ****     int count;
  50:Generated_Source\PSoC5/tick.c **** /* `#END` */
  51:Generated_Source\PSoC5/tick.c **** 
  52:Generated_Source\PSoC5/tick.c **** #ifndef CYINT_IRQ_BASE
  53:Generated_Source\PSoC5/tick.c **** #define CYINT_IRQ_BASE      16
  54:Generated_Source\PSoC5/tick.c **** #endif /* CYINT_IRQ_BASE */
  55:Generated_Source\PSoC5/tick.c **** #ifndef CYINT_VECT_TABLE
  56:Generated_Source\PSoC5/tick.c **** #define CYINT_VECT_TABLE    ((cyisraddress **) CYREG_NVIC_VECT_OFFSET)
  57:Generated_Source\PSoC5/tick.c **** #endif /* CYINT_VECT_TABLE */
  58:Generated_Source\PSoC5/tick.c **** 
  59:Generated_Source\PSoC5/tick.c **** /* Declared in startup, used to set unused interrupts to. */
  60:Generated_Source\PSoC5/tick.c **** CY_ISR_PROTO(IntDefaultHandler);
  61:Generated_Source\PSoC5/tick.c **** 
  62:Generated_Source\PSoC5/tick.c **** 
  63:Generated_Source\PSoC5/tick.c **** /*******************************************************************************
  64:Generated_Source\PSoC5/tick.c **** * Function Name: tick_Start
  65:Generated_Source\PSoC5/tick.c **** ********************************************************************************
  66:Generated_Source\PSoC5/tick.c **** *
  67:Generated_Source\PSoC5/tick.c **** * Summary:
  68:Generated_Source\PSoC5/tick.c **** *  Set up the interrupt and enable it. This function disables the interrupt, 
  69:Generated_Source\PSoC5/tick.c **** *  sets the default interrupt vector, sets the priority from the value in the
  70:Generated_Source\PSoC5/tick.c **** *  Design Wide Resources Interrupt Editor, then enables the interrupt to the 
  71:Generated_Source\PSoC5/tick.c **** *  interrupt controller.
  72:Generated_Source\PSoC5/tick.c **** *
ARM GAS  C:\Users\pajoh\AppData\Local\Temp\ccpfK10Z.s 			page 3


  73:Generated_Source\PSoC5/tick.c **** * Parameters:  
  74:Generated_Source\PSoC5/tick.c **** *   None
  75:Generated_Source\PSoC5/tick.c **** *
  76:Generated_Source\PSoC5/tick.c **** * Return:
  77:Generated_Source\PSoC5/tick.c **** *   None
  78:Generated_Source\PSoC5/tick.c **** *
  79:Generated_Source\PSoC5/tick.c **** *******************************************************************************/
  80:Generated_Source\PSoC5/tick.c **** void tick_Start(void)
  81:Generated_Source\PSoC5/tick.c **** {
  43              		.loc 1 81 0
  44              		.cfi_startproc
  45              		@ args = 0, pretend = 0, frame = 0
  46              		@ frame_needed = 1, uses_anonymous_args = 0
  47 0000 80B5     		push	{r7, lr}
  48              		.cfi_def_cfa_offset 8
  49              		.cfi_offset 7, -8
  50              		.cfi_offset 14, -4
  51 0002 00AF     		add	r7, sp, #0
  52              		.cfi_def_cfa_register 7
  82:Generated_Source\PSoC5/tick.c ****     /* For all we know the interrupt is active. */
  83:Generated_Source\PSoC5/tick.c ****     tick_Disable();
  53              		.loc 1 83 0
  54 0004 FFF7FEFF 		bl	tick_Disable
  84:Generated_Source\PSoC5/tick.c **** 
  85:Generated_Source\PSoC5/tick.c ****     /* Set the ISR to point to the tick Interrupt. */
  86:Generated_Source\PSoC5/tick.c ****     tick_SetVector(&tick_Interrupt);
  55              		.loc 1 86 0
  56 0008 0448     		ldr	r0, .L2
  57 000a FFF7FEFF 		bl	tick_SetVector
  87:Generated_Source\PSoC5/tick.c **** 
  88:Generated_Source\PSoC5/tick.c ****     /* Set the priority. */
  89:Generated_Source\PSoC5/tick.c ****     tick_SetPriority((uint8)tick_INTC_PRIOR_NUMBER);
  58              		.loc 1 89 0
  59 000e 0720     		movs	r0, #7
  60 0010 FFF7FEFF 		bl	tick_SetPriority
  90:Generated_Source\PSoC5/tick.c **** 
  91:Generated_Source\PSoC5/tick.c ****     /* Enable it. */
  92:Generated_Source\PSoC5/tick.c ****     tick_Enable();
  61              		.loc 1 92 0
  62 0014 FFF7FEFF 		bl	tick_Enable
  93:Generated_Source\PSoC5/tick.c **** }
  63              		.loc 1 93 0
  64 0018 00BF     		nop
  65 001a 80BD     		pop	{r7, pc}
  66              	.L3:
  67              		.align	2
  68              	.L2:
  69 001c 00000000 		.word	tick_Interrupt
  70              		.cfi_endproc
  71              	.LFE0:
  72              		.size	tick_Start, .-tick_Start
  73              		.section	.text.tick_StartEx,"ax",%progbits
  74              		.align	2
  75              		.global	tick_StartEx
  76              		.thumb
  77              		.thumb_func
  78              		.type	tick_StartEx, %function
ARM GAS  C:\Users\pajoh\AppData\Local\Temp\ccpfK10Z.s 			page 4


  79              	tick_StartEx:
  80              	.LFB1:
  94:Generated_Source\PSoC5/tick.c **** 
  95:Generated_Source\PSoC5/tick.c **** 
  96:Generated_Source\PSoC5/tick.c **** /*******************************************************************************
  97:Generated_Source\PSoC5/tick.c **** * Function Name: tick_StartEx
  98:Generated_Source\PSoC5/tick.c **** ********************************************************************************
  99:Generated_Source\PSoC5/tick.c **** *
 100:Generated_Source\PSoC5/tick.c **** * Summary:
 101:Generated_Source\PSoC5/tick.c **** *  Sets up the interrupt and enables it. This function disables the interrupt,
 102:Generated_Source\PSoC5/tick.c **** *  sets the interrupt vector based on the address passed in, sets the priority 
 103:Generated_Source\PSoC5/tick.c **** *  from the value in the Design Wide Resources Interrupt Editor, then enables 
 104:Generated_Source\PSoC5/tick.c **** *  the interrupt to the interrupt controller.
 105:Generated_Source\PSoC5/tick.c **** *  
 106:Generated_Source\PSoC5/tick.c **** *  When defining ISR functions, the CY_ISR and CY_ISR_PROTO macros should be 
 107:Generated_Source\PSoC5/tick.c **** *  used to provide consistent definition across compilers:
 108:Generated_Source\PSoC5/tick.c **** *  
 109:Generated_Source\PSoC5/tick.c **** *  Function definition example:
 110:Generated_Source\PSoC5/tick.c **** *   CY_ISR(MyISR)
 111:Generated_Source\PSoC5/tick.c **** *   {
 112:Generated_Source\PSoC5/tick.c **** *   }
 113:Generated_Source\PSoC5/tick.c **** *   Function prototype example:
 114:Generated_Source\PSoC5/tick.c **** *   CY_ISR_PROTO(MyISR);
 115:Generated_Source\PSoC5/tick.c **** *
 116:Generated_Source\PSoC5/tick.c **** * Parameters:  
 117:Generated_Source\PSoC5/tick.c **** *   address: Address of the ISR to set in the interrupt vector table.
 118:Generated_Source\PSoC5/tick.c **** *
 119:Generated_Source\PSoC5/tick.c **** * Return:
 120:Generated_Source\PSoC5/tick.c **** *   None
 121:Generated_Source\PSoC5/tick.c **** *
 122:Generated_Source\PSoC5/tick.c **** *******************************************************************************/
 123:Generated_Source\PSoC5/tick.c **** void tick_StartEx(cyisraddress address)
 124:Generated_Source\PSoC5/tick.c **** {
  81              		.loc 1 124 0
  82              		.cfi_startproc
  83              		@ args = 0, pretend = 0, frame = 8
  84              		@ frame_needed = 1, uses_anonymous_args = 0
  85 0000 80B5     		push	{r7, lr}
  86              		.cfi_def_cfa_offset 8
  87              		.cfi_offset 7, -8
  88              		.cfi_offset 14, -4
  89 0002 82B0     		sub	sp, sp, #8
  90              		.cfi_def_cfa_offset 16
  91 0004 00AF     		add	r7, sp, #0
  92              		.cfi_def_cfa_register 7
  93 0006 7860     		str	r0, [r7, #4]
 125:Generated_Source\PSoC5/tick.c ****     /* For all we know the interrupt is active. */
 126:Generated_Source\PSoC5/tick.c ****     tick_Disable();
  94              		.loc 1 126 0
  95 0008 FFF7FEFF 		bl	tick_Disable
 127:Generated_Source\PSoC5/tick.c **** 
 128:Generated_Source\PSoC5/tick.c ****     /* Set the ISR to point to the tick Interrupt. */
 129:Generated_Source\PSoC5/tick.c ****     tick_SetVector(address);
  96              		.loc 1 129 0
  97 000c 7868     		ldr	r0, [r7, #4]
  98 000e FFF7FEFF 		bl	tick_SetVector
 130:Generated_Source\PSoC5/tick.c **** 
ARM GAS  C:\Users\pajoh\AppData\Local\Temp\ccpfK10Z.s 			page 5


 131:Generated_Source\PSoC5/tick.c ****     /* Set the priority. */
 132:Generated_Source\PSoC5/tick.c ****     tick_SetPriority((uint8)tick_INTC_PRIOR_NUMBER);
  99              		.loc 1 132 0
 100 0012 0720     		movs	r0, #7
 101 0014 FFF7FEFF 		bl	tick_SetPriority
 133:Generated_Source\PSoC5/tick.c **** 
 134:Generated_Source\PSoC5/tick.c ****     /* Enable it. */
 135:Generated_Source\PSoC5/tick.c ****     tick_Enable();
 102              		.loc 1 135 0
 103 0018 FFF7FEFF 		bl	tick_Enable
 136:Generated_Source\PSoC5/tick.c **** }
 104              		.loc 1 136 0
 105 001c 00BF     		nop
 106 001e 0837     		adds	r7, r7, #8
 107              		.cfi_def_cfa_offset 8
 108 0020 BD46     		mov	sp, r7
 109              		.cfi_def_cfa_register 13
 110              		@ sp needed
 111 0022 80BD     		pop	{r7, pc}
 112              		.cfi_endproc
 113              	.LFE1:
 114              		.size	tick_StartEx, .-tick_StartEx
 115              		.section	.text.tick_Stop,"ax",%progbits
 116              		.align	2
 117              		.global	tick_Stop
 118              		.thumb
 119              		.thumb_func
 120              		.type	tick_Stop, %function
 121              	tick_Stop:
 122              	.LFB2:
 137:Generated_Source\PSoC5/tick.c **** 
 138:Generated_Source\PSoC5/tick.c **** 
 139:Generated_Source\PSoC5/tick.c **** /*******************************************************************************
 140:Generated_Source\PSoC5/tick.c **** * Function Name: tick_Stop
 141:Generated_Source\PSoC5/tick.c **** ********************************************************************************
 142:Generated_Source\PSoC5/tick.c **** *
 143:Generated_Source\PSoC5/tick.c **** * Summary:
 144:Generated_Source\PSoC5/tick.c **** *   Disables and removes the interrupt.
 145:Generated_Source\PSoC5/tick.c **** *
 146:Generated_Source\PSoC5/tick.c **** * Parameters:  
 147:Generated_Source\PSoC5/tick.c **** *   None
 148:Generated_Source\PSoC5/tick.c **** *
 149:Generated_Source\PSoC5/tick.c **** * Return:
 150:Generated_Source\PSoC5/tick.c **** *   None
 151:Generated_Source\PSoC5/tick.c **** *
 152:Generated_Source\PSoC5/tick.c **** *******************************************************************************/
 153:Generated_Source\PSoC5/tick.c **** void tick_Stop(void)
 154:Generated_Source\PSoC5/tick.c **** {
 123              		.loc 1 154 0
 124              		.cfi_startproc
 125              		@ args = 0, pretend = 0, frame = 0
 126              		@ frame_needed = 1, uses_anonymous_args = 0
 127 0000 80B5     		push	{r7, lr}
 128              		.cfi_def_cfa_offset 8
 129              		.cfi_offset 7, -8
 130              		.cfi_offset 14, -4
 131 0002 00AF     		add	r7, sp, #0
ARM GAS  C:\Users\pajoh\AppData\Local\Temp\ccpfK10Z.s 			page 6


 132              		.cfi_def_cfa_register 7
 155:Generated_Source\PSoC5/tick.c ****     /* Disable this interrupt. */
 156:Generated_Source\PSoC5/tick.c ****     tick_Disable();
 133              		.loc 1 156 0
 134 0004 FFF7FEFF 		bl	tick_Disable
 157:Generated_Source\PSoC5/tick.c **** 
 158:Generated_Source\PSoC5/tick.c ****     /* Set the ISR to point to the passive one. */
 159:Generated_Source\PSoC5/tick.c ****     tick_SetVector(&IntDefaultHandler);
 135              		.loc 1 159 0
 136 0008 0248     		ldr	r0, .L6
 137 000a FFF7FEFF 		bl	tick_SetVector
 160:Generated_Source\PSoC5/tick.c **** }
 138              		.loc 1 160 0
 139 000e 00BF     		nop
 140 0010 80BD     		pop	{r7, pc}
 141              	.L7:
 142 0012 00BF     		.align	2
 143              	.L6:
 144 0014 00000000 		.word	IntDefaultHandler
 145              		.cfi_endproc
 146              	.LFE2:
 147              		.size	tick_Stop, .-tick_Stop
 148              		.section	.text.tick_Interrupt,"ax",%progbits
 149              		.align	2
 150              		.global	tick_Interrupt
 151              		.thumb
 152              		.thumb_func
 153              		.type	tick_Interrupt, %function
 154              	tick_Interrupt:
 155              	.LFB3:
 161:Generated_Source\PSoC5/tick.c **** 
 162:Generated_Source\PSoC5/tick.c **** 
 163:Generated_Source\PSoC5/tick.c **** /*******************************************************************************
 164:Generated_Source\PSoC5/tick.c **** * Function Name: tick_Interrupt
 165:Generated_Source\PSoC5/tick.c **** ********************************************************************************
 166:Generated_Source\PSoC5/tick.c **** *
 167:Generated_Source\PSoC5/tick.c **** * Summary:
 168:Generated_Source\PSoC5/tick.c **** *   The default Interrupt Service Routine for tick.
 169:Generated_Source\PSoC5/tick.c **** *
 170:Generated_Source\PSoC5/tick.c **** *   Add custom code between the coments to keep the next version of this file
 171:Generated_Source\PSoC5/tick.c **** *   from over writting your code.
 172:Generated_Source\PSoC5/tick.c **** *
 173:Generated_Source\PSoC5/tick.c **** * Parameters:  
 174:Generated_Source\PSoC5/tick.c **** *
 175:Generated_Source\PSoC5/tick.c **** * Return:
 176:Generated_Source\PSoC5/tick.c **** *   None
 177:Generated_Source\PSoC5/tick.c **** *
 178:Generated_Source\PSoC5/tick.c **** *******************************************************************************/
 179:Generated_Source\PSoC5/tick.c **** CY_ISR(tick_Interrupt)
 180:Generated_Source\PSoC5/tick.c **** {
 156              		.loc 1 180 0
 157              		.cfi_startproc
 158              		@ args = 0, pretend = 0, frame = 0
 159              		@ frame_needed = 1, uses_anonymous_args = 0
 160 0000 80B5     		push	{r7, lr}
 161              		.cfi_def_cfa_offset 8
 162              		.cfi_offset 7, -8
ARM GAS  C:\Users\pajoh\AppData\Local\Temp\ccpfK10Z.s 			page 7


 163              		.cfi_offset 14, -4
 164 0002 00AF     		add	r7, sp, #0
 165              		.cfi_def_cfa_register 7
 181:Generated_Source\PSoC5/tick.c ****     #ifdef tick_INTERRUPT_INTERRUPT_CALLBACK
 182:Generated_Source\PSoC5/tick.c ****         tick_Interrupt_InterruptCallback();
 183:Generated_Source\PSoC5/tick.c ****     #endif /* tick_INTERRUPT_INTERRUPT_CALLBACK */ 
 184:Generated_Source\PSoC5/tick.c **** 
 185:Generated_Source\PSoC5/tick.c ****     /*  Place your Interrupt code here. */
 186:Generated_Source\PSoC5/tick.c ****     /* `#START tick_Interrupt` */
 187:Generated_Source\PSoC5/tick.c ****         
 188:Generated_Source\PSoC5/tick.c ****         //sample the angle sensor
 189:Generated_Source\PSoC5/tick.c ****         //send read command after checking for data
 190:Generated_Source\PSoC5/tick.c ****         //interrupt takes less time this way (hopefully)
 191:Generated_Source\PSoC5/tick.c ****         if(SPIM_GetRxBufferSize() != 0){
 166              		.loc 1 191 0
 167 0004 FFF7FEFF 		bl	SPIM_GetRxBufferSize
 168 0008 0346     		mov	r3, r0
 169 000a 002B     		cmp	r3, #0
 170 000c 15D0     		beq	.L9
 192:Generated_Source\PSoC5/tick.c ****             angle = SPIM_ReadRxData() & 0x3FFF; //((SPIM_ReadRxData() & 0x3FFF) * 3600)/16384;
 171              		.loc 1 192 0
 172 000e FFF7FEFF 		bl	SPIM_ReadRxData
 173 0012 0346     		mov	r3, r0
 174 0014 C3F30D03 		ubfx	r3, r3, #0, #14
 175 0018 8A4A     		ldr	r2, .L26
 176 001a 1360     		str	r3, [r2]
 193:Generated_Source\PSoC5/tick.c ****             angle = angle + offsetMap[angle/32];
 177              		.loc 1 193 0
 178 001c 894B     		ldr	r3, .L26
 179 001e 1B68     		ldr	r3, [r3]
 180 0020 002B     		cmp	r3, #0
 181 0022 00DA     		bge	.L10
 182 0024 1F33     		adds	r3, r3, #31
 183              	.L10:
 184 0026 5B11     		asrs	r3, r3, #5
 185 0028 1A46     		mov	r2, r3
 186 002a 874B     		ldr	r3, .L26+4
 187 002c 53F82220 		ldr	r2, [r3, r2, lsl #2]
 188 0030 844B     		ldr	r3, .L26
 189 0032 1B68     		ldr	r3, [r3]
 190 0034 1344     		add	r3, r3, r2
 191 0036 834A     		ldr	r2, .L26
 192 0038 1360     		str	r3, [r2]
 193              	.L9:
 194:Generated_Source\PSoC5/tick.c ****         }
 195:Generated_Source\PSoC5/tick.c ****         SPIM_WriteTxData(read_angle_command);
 194              		.loc 1 195 0
 195 003a 844B     		ldr	r3, .L26+8
 196 003c 1B88     		ldrh	r3, [r3]	@ movhi
 197 003e 9BB2     		uxth	r3, r3
 198 0040 1846     		mov	r0, r3
 199 0042 FFF7FEFF 		bl	SPIM_WriteTxData
 196:Generated_Source\PSoC5/tick.c ****         
 197:Generated_Source\PSoC5/tick.c ****         axis_position_old = axis_position;
 200              		.loc 1 197 0
 201 0046 824B     		ldr	r3, .L26+12
 202 0048 1B68     		ldr	r3, [r3]
ARM GAS  C:\Users\pajoh\AppData\Local\Temp\ccpfK10Z.s 			page 8


 203 004a 824A     		ldr	r2, .L26+16
 204 004c 1360     		str	r3, [r2]
 198:Generated_Source\PSoC5/tick.c ****         
 199:Generated_Source\PSoC5/tick.c ****         //calculate axis position from shaft angle position
 200:Generated_Source\PSoC5/tick.c ****         if(angle - angle_old > 10000){
 205              		.loc 1 200 0
 206 004e 7D4B     		ldr	r3, .L26
 207 0050 1A68     		ldr	r2, [r3]
 208 0052 814B     		ldr	r3, .L26+20
 209 0054 1B68     		ldr	r3, [r3]
 210 0056 D31A     		subs	r3, r2, r3
 211 0058 42F21072 		movw	r2, #10000
 212 005c 9342     		cmp	r3, r2
 213 005e 0CDD     		ble	.L11
 201:Generated_Source\PSoC5/tick.c ****             //angle decreasing, crossed over 0
 202:Generated_Source\PSoC5/tick.c ****             axis_position = axis_position + (angle - (angle_old + 16384));
 214              		.loc 1 202 0
 215 0060 784B     		ldr	r3, .L26
 216 0062 1A68     		ldr	r2, [r3]
 217 0064 7C4B     		ldr	r3, .L26+20
 218 0066 1B68     		ldr	r3, [r3]
 219 0068 03F58043 		add	r3, r3, #16384
 220 006c D21A     		subs	r2, r2, r3
 221 006e 784B     		ldr	r3, .L26+12
 222 0070 1B68     		ldr	r3, [r3]
 223 0072 1344     		add	r3, r3, r2
 224 0074 764A     		ldr	r2, .L26+12
 225 0076 1360     		str	r3, [r2]
 226 0078 29E0     		b	.L12
 227              	.L11:
 203:Generated_Source\PSoC5/tick.c ****         }
 204:Generated_Source\PSoC5/tick.c ****         else if(angle - angle_old < -10000){
 228              		.loc 1 204 0
 229 007a 724B     		ldr	r3, .L26
 230 007c 1A68     		ldr	r2, [r3]
 231 007e 764B     		ldr	r3, .L26+20
 232 0080 1B68     		ldr	r3, [r3]
 233 0082 D31A     		subs	r3, r2, r3
 234 0084 754A     		ldr	r2, .L26+24
 235 0086 9342     		cmp	r3, r2
 236 0088 17DA     		bge	.L13
 205:Generated_Source\PSoC5/tick.c ****             //angle increasing, crossed over 0
 206:Generated_Source\PSoC5/tick.c ****             axis_position = axis_position + ((angle - angle_old) + 16384) % 16384;
 237              		.loc 1 206 0
 238 008a 6E4B     		ldr	r3, .L26
 239 008c 1A68     		ldr	r2, [r3]
 240 008e 724B     		ldr	r3, .L26+20
 241 0090 1B68     		ldr	r3, [r3]
 242 0092 D31A     		subs	r3, r2, r3
 243 0094 03F58042 		add	r2, r3, #16384
 244 0098 714B     		ldr	r3, .L26+28
 245 009a 1340     		ands	r3, r3, r2
 246 009c 002B     		cmp	r3, #0
 247 009e 05DA     		bge	.L14
 248 00a0 013B     		subs	r3, r3, #1
 249 00a2 6FEA8343 		mvn	r3, r3, lsl #18
 250 00a6 6FEA9343 		mvn	r3, r3, lsr #18
ARM GAS  C:\Users\pajoh\AppData\Local\Temp\ccpfK10Z.s 			page 9


 251 00aa 0133     		adds	r3, r3, #1
 252              	.L14:
 253 00ac 1A46     		mov	r2, r3
 254 00ae 684B     		ldr	r3, .L26+12
 255 00b0 1B68     		ldr	r3, [r3]
 256 00b2 1344     		add	r3, r3, r2
 257 00b4 664A     		ldr	r2, .L26+12
 258 00b6 1360     		str	r3, [r2]
 259 00b8 09E0     		b	.L12
 260              	.L13:
 207:Generated_Source\PSoC5/tick.c ****         }
 208:Generated_Source\PSoC5/tick.c ****         else{
 209:Generated_Source\PSoC5/tick.c ****             axis_position = axis_position + angle - angle_old;
 261              		.loc 1 209 0
 262 00ba 654B     		ldr	r3, .L26+12
 263 00bc 1A68     		ldr	r2, [r3]
 264 00be 614B     		ldr	r3, .L26
 265 00c0 1B68     		ldr	r3, [r3]
 266 00c2 1A44     		add	r2, r2, r3
 267 00c4 644B     		ldr	r3, .L26+20
 268 00c6 1B68     		ldr	r3, [r3]
 269 00c8 D31A     		subs	r3, r2, r3
 270 00ca 614A     		ldr	r2, .L26+12
 271 00cc 1360     		str	r3, [r2]
 272              	.L12:
 210:Generated_Source\PSoC5/tick.c ****         }
 211:Generated_Source\PSoC5/tick.c ****         angle_old = angle;
 273              		.loc 1 211 0
 274 00ce 5D4B     		ldr	r3, .L26
 275 00d0 1B68     		ldr	r3, [r3]
 276 00d2 614A     		ldr	r2, .L26+20
 277 00d4 1360     		str	r3, [r2]
 212:Generated_Source\PSoC5/tick.c ****         
 213:Generated_Source\PSoC5/tick.c ****         //a touch of filtering
 214:Generated_Source\PSoC5/tick.c ****         axis_position_filtered = (axis_position_filtered*5 + axis_position*3)/8;
 278              		.loc 1 214 0
 279 00d6 634B     		ldr	r3, .L26+32
 280 00d8 1A68     		ldr	r2, [r3]
 281 00da 1346     		mov	r3, r2
 282 00dc 9B00     		lsls	r3, r3, #2
 283 00de 9918     		adds	r1, r3, r2
 284 00e0 5B4B     		ldr	r3, .L26+12
 285 00e2 1A68     		ldr	r2, [r3]
 286 00e4 1346     		mov	r3, r2
 287 00e6 5B00     		lsls	r3, r3, #1
 288 00e8 1344     		add	r3, r3, r2
 289 00ea 0B44     		add	r3, r3, r1
 290 00ec 002B     		cmp	r3, #0
 291 00ee 00DA     		bge	.L15
 292 00f0 0733     		adds	r3, r3, #7
 293              	.L15:
 294 00f2 DB10     		asrs	r3, r3, #3
 295 00f4 1A46     		mov	r2, r3
 296 00f6 5B4B     		ldr	r3, .L26+32
 297 00f8 1A60     		str	r2, [r3]
 215:Generated_Source\PSoC5/tick.c ****         
 216:Generated_Source\PSoC5/tick.c ****         if(start_count < 100){
ARM GAS  C:\Users\pajoh\AppData\Local\Temp\ccpfK10Z.s 			page 10


 298              		.loc 1 216 0
 299 00fa 5B4B     		ldr	r3, .L26+36
 300 00fc 1B68     		ldr	r3, [r3]
 301 00fe 632B     		cmp	r3, #99
 302 0100 04DC     		bgt	.L16
 217:Generated_Source\PSoC5/tick.c ****             start_count++;   
 303              		.loc 1 217 0
 304 0102 594B     		ldr	r3, .L26+36
 305 0104 1B68     		ldr	r3, [r3]
 306 0106 0133     		adds	r3, r3, #1
 307 0108 574A     		ldr	r2, .L26+36
 308 010a 1360     		str	r3, [r2]
 309              	.L16:
 218:Generated_Source\PSoC5/tick.c ****         }
 219:Generated_Source\PSoC5/tick.c ****         #ifdef TORQUE_CTRL
 220:Generated_Source\PSoC5/tick.c ****         if(start_count == 100){
 310              		.loc 1 220 0
 311 010c 564B     		ldr	r3, .L26+36
 312 010e 1B68     		ldr	r3, [r3]
 313 0110 642B     		cmp	r3, #100
 314 0112 40F08180 		bne	.L17
 221:Generated_Source\PSoC5/tick.c ****         count = (count + 1)%10;
 315              		.loc 1 221 0
 316 0116 554B     		ldr	r3, .L26+40
 317 0118 1B68     		ldr	r3, [r3]
 318 011a 591C     		adds	r1, r3, #1
 319 011c 544B     		ldr	r3, .L26+44
 320 011e 83FB0123 		smull	r2, r3, r3, r1
 321 0122 9A10     		asrs	r2, r3, #2
 322 0124 CB17     		asrs	r3, r1, #31
 323 0126 D21A     		subs	r2, r2, r3
 324 0128 1346     		mov	r3, r2
 325 012a 9B00     		lsls	r3, r3, #2
 326 012c 1344     		add	r3, r3, r2
 327 012e 5B00     		lsls	r3, r3, #1
 328 0130 CA1A     		subs	r2, r1, r3
 329 0132 4E4B     		ldr	r3, .L26+40
 330 0134 1A60     		str	r2, [r3]
 222:Generated_Source\PSoC5/tick.c ****         if(count == 0){
 331              		.loc 1 222 0
 332 0136 4D4B     		ldr	r3, .L26+40
 333 0138 1B68     		ldr	r3, [r3]
 334 013a 002B     		cmp	r3, #0
 335 013c 02D1     		bne	.L18
 223:Generated_Source\PSoC5/tick.c ****             controller_tick = 1;
 336              		.loc 1 223 0
 337 013e 4D4B     		ldr	r3, .L26+48
 338 0140 0122     		movs	r2, #1
 339 0142 1A70     		strb	r2, [r3]
 340              	.L18:
 224:Generated_Source\PSoC5/tick.c ****         }
 225:Generated_Source\PSoC5/tick.c ****         
 226:Generated_Source\PSoC5/tick.c ****         
 227:Generated_Source\PSoC5/tick.c ****         angle_diff = angle_electric - (axis_position_filtered * 3200) / 16384;
 341              		.loc 1 227 0
 342 0144 4C4B     		ldr	r3, .L26+52
 343 0146 1A68     		ldr	r2, [r3]
ARM GAS  C:\Users\pajoh\AppData\Local\Temp\ccpfK10Z.s 			page 11


 344 0148 464B     		ldr	r3, .L26+32
 345 014a 1B68     		ldr	r3, [r3]
 346 014c 4FF44861 		mov	r1, #3200
 347 0150 01FB03F3 		mul	r3, r1, r3
 348 0154 002B     		cmp	r3, #0
 349 0156 02DA     		bge	.L19
 350 0158 03F57F53 		add	r3, r3, #16320
 351 015c 3F33     		adds	r3, r3, #63
 352              	.L19:
 353 015e 9B13     		asrs	r3, r3, #14
 354 0160 D31A     		subs	r3, r2, r3
 355 0162 464A     		ldr	r2, .L26+56
 356 0164 1360     		str	r3, [r2]
 228:Generated_Source\PSoC5/tick.c ****         
 229:Generated_Source\PSoC5/tick.c ****         lead_angle = torque_command - angle_diff;
 357              		.loc 1 229 0
 358 0166 464B     		ldr	r3, .L26+60
 359 0168 1A68     		ldr	r2, [r3]
 360 016a 444B     		ldr	r3, .L26+56
 361 016c 1B68     		ldr	r3, [r3]
 362 016e D31A     		subs	r3, r2, r3
 363 0170 444A     		ldr	r2, .L26+64
 364 0172 1360     		str	r3, [r2]
 230:Generated_Source\PSoC5/tick.c ****             if(lead_angle > 15){
 365              		.loc 1 230 0
 366 0174 434B     		ldr	r3, .L26+64
 367 0176 1B68     		ldr	r3, [r3]
 368 0178 0F2B     		cmp	r3, #15
 369 017a 03DD     		ble	.L20
 231:Generated_Source\PSoC5/tick.c ****                 lead_angle = 15;
 370              		.loc 1 231 0
 371 017c 414B     		ldr	r3, .L26+64
 372 017e 0F22     		movs	r2, #15
 373 0180 1A60     		str	r2, [r3]
 374 0182 08E0     		b	.L21
 375              	.L20:
 232:Generated_Source\PSoC5/tick.c ****             }
 233:Generated_Source\PSoC5/tick.c ****             else if(lead_angle < -15){
 376              		.loc 1 233 0
 377 0184 3F4B     		ldr	r3, .L26+64
 378 0186 1B68     		ldr	r3, [r3]
 379 0188 13F10F0F 		cmn	r3, #15
 380 018c 03DA     		bge	.L21
 234:Generated_Source\PSoC5/tick.c ****                 lead_angle = -15;
 381              		.loc 1 234 0
 382 018e 3D4B     		ldr	r3, .L26+64
 383 0190 6FF00E02 		mvn	r2, #14
 384 0194 1A60     		str	r2, [r3]
 385              	.L21:
 235:Generated_Source\PSoC5/tick.c ****             }
 236:Generated_Source\PSoC5/tick.c ****             if(lead_angle > 0){
 386              		.loc 1 236 0
 387 0196 3B4B     		ldr	r3, .L26+64
 388 0198 1B68     		ldr	r3, [r3]
 389 019a 002B     		cmp	r3, #0
 390 019c 19DD     		ble	.L22
 237:Generated_Source\PSoC5/tick.c ****                 Direction_Write(1);
ARM GAS  C:\Users\pajoh\AppData\Local\Temp\ccpfK10Z.s 			page 12


 391              		.loc 1 237 0
 392 019e 0120     		movs	r0, #1
 393 01a0 FFF7FEFF 		bl	Direction_Write
 238:Generated_Source\PSoC5/tick.c ****                 CyDelayUs(1);
 394              		.loc 1 238 0
 395 01a4 0120     		movs	r0, #1
 396 01a6 FFF7FEFF 		bl	CyDelayUs
 239:Generated_Source\PSoC5/tick.c ****                 ShiftReg_1_Stop();
 397              		.loc 1 239 0
 398 01aa FFF7FEFF 		bl	ShiftReg_1_Stop
 240:Generated_Source\PSoC5/tick.c ****                 ShiftReg_1_WriteRegValue(step_array[lead_angle]);
 399              		.loc 1 240 0
 400 01ae 354B     		ldr	r3, .L26+64
 401 01b0 1B68     		ldr	r3, [r3]
 402 01b2 354A     		ldr	r2, .L26+68
 403 01b4 52F82330 		ldr	r3, [r2, r3, lsl #2]
 404 01b8 1846     		mov	r0, r3
 405 01ba FFF7FEFF 		bl	ShiftReg_1_WriteRegValue
 241:Generated_Source\PSoC5/tick.c ****                 ShiftReg_1_Enable();
 406              		.loc 1 241 0
 407 01be FFF7FEFF 		bl	ShiftReg_1_Enable
 242:Generated_Source\PSoC5/tick.c ****                 angle_electric += lead_angle;
 408              		.loc 1 242 0
 409 01c2 304B     		ldr	r3, .L26+64
 410 01c4 1A68     		ldr	r2, [r3]
 411 01c6 2C4B     		ldr	r3, .L26+52
 412 01c8 1B68     		ldr	r3, [r3]
 413 01ca 1344     		add	r3, r3, r2
 414 01cc 2A4A     		ldr	r2, .L26+52
 415 01ce 1360     		str	r3, [r2]
 243:Generated_Source\PSoC5/tick.c ****             }
 244:Generated_Source\PSoC5/tick.c ****             else if(lead_angle < 0){
 245:Generated_Source\PSoC5/tick.c ****                 Direction_Write(0);
 246:Generated_Source\PSoC5/tick.c ****                 CyDelayUs(1);
 247:Generated_Source\PSoC5/tick.c ****                 lead_angle *= -1;
 248:Generated_Source\PSoC5/tick.c ****                 ShiftReg_1_Stop();
 249:Generated_Source\PSoC5/tick.c ****                 ShiftReg_1_WriteRegValue(step_array[lead_angle]);
 250:Generated_Source\PSoC5/tick.c ****                 ShiftReg_1_Enable();
 251:Generated_Source\PSoC5/tick.c ****                 angle_electric -= lead_angle;
 252:Generated_Source\PSoC5/tick.c ****             }
 253:Generated_Source\PSoC5/tick.c ****             else{
 254:Generated_Source\PSoC5/tick.c ****                 
 255:Generated_Source\PSoC5/tick.c ****             }
 256:Generated_Source\PSoC5/tick.c ****         }
 257:Generated_Source\PSoC5/tick.c ****         else{
 258:Generated_Source\PSoC5/tick.c ****             angle_electric = axis_position * 3200 / 16384;   
 259:Generated_Source\PSoC5/tick.c ****             axis_position_filtered = axis_position;
 260:Generated_Source\PSoC5/tick.c ****         }
 261:Generated_Source\PSoC5/tick.c ****         #endif
 262:Generated_Source\PSoC5/tick.c ****         
 263:Generated_Source\PSoC5/tick.c ****     /* `#END` */
 264:Generated_Source\PSoC5/tick.c **** }
 416              		.loc 1 264 0
 417 01d0 35E0     		b	.L25
 418              	.L22:
 244:Generated_Source\PSoC5/tick.c ****                 Direction_Write(0);
 419              		.loc 1 244 0
ARM GAS  C:\Users\pajoh\AppData\Local\Temp\ccpfK10Z.s 			page 13


 420 01d2 2C4B     		ldr	r3, .L26+64
 421 01d4 1B68     		ldr	r3, [r3]
 422 01d6 002B     		cmp	r3, #0
 423 01d8 31DA     		bge	.L25
 245:Generated_Source\PSoC5/tick.c ****                 CyDelayUs(1);
 424              		.loc 1 245 0
 425 01da 0020     		movs	r0, #0
 426 01dc FFF7FEFF 		bl	Direction_Write
 246:Generated_Source\PSoC5/tick.c ****                 lead_angle *= -1;
 427              		.loc 1 246 0
 428 01e0 0120     		movs	r0, #1
 429 01e2 FFF7FEFF 		bl	CyDelayUs
 247:Generated_Source\PSoC5/tick.c ****                 ShiftReg_1_Stop();
 430              		.loc 1 247 0
 431 01e6 274B     		ldr	r3, .L26+64
 432 01e8 1B68     		ldr	r3, [r3]
 433 01ea 5B42     		negs	r3, r3
 434 01ec 254A     		ldr	r2, .L26+64
 435 01ee 1360     		str	r3, [r2]
 248:Generated_Source\PSoC5/tick.c ****                 ShiftReg_1_WriteRegValue(step_array[lead_angle]);
 436              		.loc 1 248 0
 437 01f0 FFF7FEFF 		bl	ShiftReg_1_Stop
 249:Generated_Source\PSoC5/tick.c ****                 ShiftReg_1_Enable();
 438              		.loc 1 249 0
 439 01f4 234B     		ldr	r3, .L26+64
 440 01f6 1B68     		ldr	r3, [r3]
 441 01f8 234A     		ldr	r2, .L26+68
 442 01fa 52F82330 		ldr	r3, [r2, r3, lsl #2]
 443 01fe 1846     		mov	r0, r3
 444 0200 FFF7FEFF 		bl	ShiftReg_1_WriteRegValue
 250:Generated_Source\PSoC5/tick.c ****                 angle_electric -= lead_angle;
 445              		.loc 1 250 0
 446 0204 FFF7FEFF 		bl	ShiftReg_1_Enable
 251:Generated_Source\PSoC5/tick.c ****             }
 447              		.loc 1 251 0
 448 0208 1E4B     		ldr	r3, .L26+64
 449 020a 1B68     		ldr	r3, [r3]
 450 020c 1A4A     		ldr	r2, .L26+52
 451 020e 1268     		ldr	r2, [r2]
 452 0210 D31A     		subs	r3, r2, r3
 453 0212 194A     		ldr	r2, .L26+52
 454 0214 1360     		str	r3, [r2]
 455              		.loc 1 264 0
 456 0216 12E0     		b	.L25
 457              	.L17:
 258:Generated_Source\PSoC5/tick.c ****             axis_position_filtered = axis_position;
 458              		.loc 1 258 0
 459 0218 0D4B     		ldr	r3, .L26+12
 460 021a 1B68     		ldr	r3, [r3]
 461 021c 4FF44862 		mov	r2, #3200
 462 0220 02FB03F3 		mul	r3, r2, r3
 463 0224 002B     		cmp	r3, #0
 464 0226 02DA     		bge	.L24
 465 0228 03F57F53 		add	r3, r3, #16320
 466 022c 3F33     		adds	r3, r3, #63
 467              	.L24:
 468 022e 9B13     		asrs	r3, r3, #14
ARM GAS  C:\Users\pajoh\AppData\Local\Temp\ccpfK10Z.s 			page 14


 469 0230 1A46     		mov	r2, r3
 470 0232 114B     		ldr	r3, .L26+52
 471 0234 1A60     		str	r2, [r3]
 259:Generated_Source\PSoC5/tick.c ****         }
 472              		.loc 1 259 0
 473 0236 064B     		ldr	r3, .L26+12
 474 0238 1B68     		ldr	r3, [r3]
 475 023a 0A4A     		ldr	r2, .L26+32
 476 023c 1360     		str	r3, [r2]
 477              	.L25:
 478              		.loc 1 264 0
 479 023e 00BF     		nop
 480 0240 80BD     		pop	{r7, pc}
 481              	.L27:
 482 0242 00BF     		.align	2
 483              	.L26:
 484 0244 00000000 		.word	angle
 485 0248 00000000 		.word	offsetMap
 486 024c 00000000 		.word	read_angle_command
 487 0250 00000000 		.word	axis_position
 488 0254 00000000 		.word	axis_position_old
 489 0258 00000000 		.word	angle_old
 490 025c F0D8FFFF 		.word	-10000
 491 0260 FF3F0080 		.word	-2147467265
 492 0264 00000000 		.word	axis_position_filtered
 493 0268 00000000 		.word	start_count
 494 026c 00000000 		.word	count
 495 0270 67666666 		.word	1717986919
 496 0274 00000000 		.word	controller_tick
 497 0278 00000000 		.word	angle_electric
 498 027c 00000000 		.word	angle_diff
 499 0280 00000000 		.word	torque_command
 500 0284 00000000 		.word	lead_angle
 501 0288 00000000 		.word	step_array
 502              		.cfi_endproc
 503              	.LFE3:
 504              		.size	tick_Interrupt, .-tick_Interrupt
 505              		.section	.text.tick_SetVector,"ax",%progbits
 506              		.align	2
 507              		.global	tick_SetVector
 508              		.thumb
 509              		.thumb_func
 510              		.type	tick_SetVector, %function
 511              	tick_SetVector:
 512              	.LFB4:
 265:Generated_Source\PSoC5/tick.c **** 
 266:Generated_Source\PSoC5/tick.c **** 
 267:Generated_Source\PSoC5/tick.c **** /*******************************************************************************
 268:Generated_Source\PSoC5/tick.c **** * Function Name: tick_SetVector
 269:Generated_Source\PSoC5/tick.c **** ********************************************************************************
 270:Generated_Source\PSoC5/tick.c **** *
 271:Generated_Source\PSoC5/tick.c **** * Summary:
 272:Generated_Source\PSoC5/tick.c **** *   Change the ISR vector for the Interrupt. Note calling tick_Start
 273:Generated_Source\PSoC5/tick.c **** *   will override any effect this method would have had. To set the vector 
 274:Generated_Source\PSoC5/tick.c **** *   before the component has been started use tick_StartEx instead.
 275:Generated_Source\PSoC5/tick.c **** * 
 276:Generated_Source\PSoC5/tick.c **** *   When defining ISR functions, the CY_ISR and CY_ISR_PROTO macros should be 
ARM GAS  C:\Users\pajoh\AppData\Local\Temp\ccpfK10Z.s 			page 15


 277:Generated_Source\PSoC5/tick.c **** *   used to provide consistent definition across compilers:
 278:Generated_Source\PSoC5/tick.c **** *
 279:Generated_Source\PSoC5/tick.c **** *   Function definition example:
 280:Generated_Source\PSoC5/tick.c **** *   CY_ISR(MyISR)
 281:Generated_Source\PSoC5/tick.c **** *   {
 282:Generated_Source\PSoC5/tick.c **** *   }
 283:Generated_Source\PSoC5/tick.c **** *
 284:Generated_Source\PSoC5/tick.c **** *   Function prototype example:
 285:Generated_Source\PSoC5/tick.c **** *     CY_ISR_PROTO(MyISR);
 286:Generated_Source\PSoC5/tick.c **** *
 287:Generated_Source\PSoC5/tick.c **** * Parameters:
 288:Generated_Source\PSoC5/tick.c **** *   address: Address of the ISR to set in the interrupt vector table.
 289:Generated_Source\PSoC5/tick.c **** *
 290:Generated_Source\PSoC5/tick.c **** * Return:
 291:Generated_Source\PSoC5/tick.c **** *   None
 292:Generated_Source\PSoC5/tick.c **** *
 293:Generated_Source\PSoC5/tick.c **** *******************************************************************************/
 294:Generated_Source\PSoC5/tick.c **** void tick_SetVector(cyisraddress address)
 295:Generated_Source\PSoC5/tick.c **** {
 513              		.loc 1 295 0
 514              		.cfi_startproc
 515              		@ args = 0, pretend = 0, frame = 16
 516              		@ frame_needed = 1, uses_anonymous_args = 0
 517              		@ link register save eliminated.
 518 0000 80B4     		push	{r7}
 519              		.cfi_def_cfa_offset 4
 520              		.cfi_offset 7, -4
 521 0002 85B0     		sub	sp, sp, #20
 522              		.cfi_def_cfa_offset 24
 523 0004 00AF     		add	r7, sp, #0
 524              		.cfi_def_cfa_register 7
 525 0006 7860     		str	r0, [r7, #4]
 296:Generated_Source\PSoC5/tick.c ****     cyisraddress * ramVectorTable;
 297:Generated_Source\PSoC5/tick.c **** 
 298:Generated_Source\PSoC5/tick.c ****     ramVectorTable = (cyisraddress *) *CYINT_VECT_TABLE;
 526              		.loc 1 298 0
 527 0008 054B     		ldr	r3, .L29
 528 000a 1B68     		ldr	r3, [r3]
 529 000c FB60     		str	r3, [r7, #12]
 299:Generated_Source\PSoC5/tick.c **** 
 300:Generated_Source\PSoC5/tick.c ****     ramVectorTable[CYINT_IRQ_BASE + (uint32)tick__INTC_NUMBER] = address;
 530              		.loc 1 300 0
 531 000e FB68     		ldr	r3, [r7, #12]
 532 0010 4033     		adds	r3, r3, #64
 533 0012 7A68     		ldr	r2, [r7, #4]
 534 0014 1A60     		str	r2, [r3]
 301:Generated_Source\PSoC5/tick.c **** }
 535              		.loc 1 301 0
 536 0016 00BF     		nop
 537 0018 1437     		adds	r7, r7, #20
 538              		.cfi_def_cfa_offset 4
 539 001a BD46     		mov	sp, r7
 540              		.cfi_def_cfa_register 13
 541              		@ sp needed
 542 001c 80BC     		pop	{r7}
 543              		.cfi_restore 7
 544              		.cfi_def_cfa_offset 0
ARM GAS  C:\Users\pajoh\AppData\Local\Temp\ccpfK10Z.s 			page 16


 545 001e 7047     		bx	lr
 546              	.L30:
 547              		.align	2
 548              	.L29:
 549 0020 08ED00E0 		.word	-536810232
 550              		.cfi_endproc
 551              	.LFE4:
 552              		.size	tick_SetVector, .-tick_SetVector
 553              		.section	.text.tick_GetVector,"ax",%progbits
 554              		.align	2
 555              		.global	tick_GetVector
 556              		.thumb
 557              		.thumb_func
 558              		.type	tick_GetVector, %function
 559              	tick_GetVector:
 560              	.LFB5:
 302:Generated_Source\PSoC5/tick.c **** 
 303:Generated_Source\PSoC5/tick.c **** 
 304:Generated_Source\PSoC5/tick.c **** /*******************************************************************************
 305:Generated_Source\PSoC5/tick.c **** * Function Name: tick_GetVector
 306:Generated_Source\PSoC5/tick.c **** ********************************************************************************
 307:Generated_Source\PSoC5/tick.c **** *
 308:Generated_Source\PSoC5/tick.c **** * Summary:
 309:Generated_Source\PSoC5/tick.c **** *   Gets the "address" of the current ISR vector for the Interrupt.
 310:Generated_Source\PSoC5/tick.c **** *
 311:Generated_Source\PSoC5/tick.c **** * Parameters:
 312:Generated_Source\PSoC5/tick.c **** *   None
 313:Generated_Source\PSoC5/tick.c **** *
 314:Generated_Source\PSoC5/tick.c **** * Return:
 315:Generated_Source\PSoC5/tick.c **** *   Address of the ISR in the interrupt vector table.
 316:Generated_Source\PSoC5/tick.c **** *
 317:Generated_Source\PSoC5/tick.c **** *******************************************************************************/
 318:Generated_Source\PSoC5/tick.c **** cyisraddress tick_GetVector(void)
 319:Generated_Source\PSoC5/tick.c **** {
 561              		.loc 1 319 0
 562              		.cfi_startproc
 563              		@ args = 0, pretend = 0, frame = 8
 564              		@ frame_needed = 1, uses_anonymous_args = 0
 565              		@ link register save eliminated.
 566 0000 80B4     		push	{r7}
 567              		.cfi_def_cfa_offset 4
 568              		.cfi_offset 7, -4
 569 0002 83B0     		sub	sp, sp, #12
 570              		.cfi_def_cfa_offset 16
 571 0004 00AF     		add	r7, sp, #0
 572              		.cfi_def_cfa_register 7
 320:Generated_Source\PSoC5/tick.c ****     cyisraddress * ramVectorTable;
 321:Generated_Source\PSoC5/tick.c **** 
 322:Generated_Source\PSoC5/tick.c ****     ramVectorTable = (cyisraddress *) *CYINT_VECT_TABLE;
 573              		.loc 1 322 0
 574 0006 054B     		ldr	r3, .L33
 575 0008 1B68     		ldr	r3, [r3]
 576 000a 7B60     		str	r3, [r7, #4]
 323:Generated_Source\PSoC5/tick.c **** 
 324:Generated_Source\PSoC5/tick.c ****     return ramVectorTable[CYINT_IRQ_BASE + (uint32)tick__INTC_NUMBER];
 577              		.loc 1 324 0
 578 000c 7B68     		ldr	r3, [r7, #4]
ARM GAS  C:\Users\pajoh\AppData\Local\Temp\ccpfK10Z.s 			page 17


 579 000e 1B6C     		ldr	r3, [r3, #64]
 325:Generated_Source\PSoC5/tick.c **** }
 580              		.loc 1 325 0
 581 0010 1846     		mov	r0, r3
 582 0012 0C37     		adds	r7, r7, #12
 583              		.cfi_def_cfa_offset 4
 584 0014 BD46     		mov	sp, r7
 585              		.cfi_def_cfa_register 13
 586              		@ sp needed
 587 0016 80BC     		pop	{r7}
 588              		.cfi_restore 7
 589              		.cfi_def_cfa_offset 0
 590 0018 7047     		bx	lr
 591              	.L34:
 592 001a 00BF     		.align	2
 593              	.L33:
 594 001c 08ED00E0 		.word	-536810232
 595              		.cfi_endproc
 596              	.LFE5:
 597              		.size	tick_GetVector, .-tick_GetVector
 598              		.section	.text.tick_SetPriority,"ax",%progbits
 599              		.align	2
 600              		.global	tick_SetPriority
 601              		.thumb
 602              		.thumb_func
 603              		.type	tick_SetPriority, %function
 604              	tick_SetPriority:
 605              	.LFB6:
 326:Generated_Source\PSoC5/tick.c **** 
 327:Generated_Source\PSoC5/tick.c **** 
 328:Generated_Source\PSoC5/tick.c **** /*******************************************************************************
 329:Generated_Source\PSoC5/tick.c **** * Function Name: tick_SetPriority
 330:Generated_Source\PSoC5/tick.c **** ********************************************************************************
 331:Generated_Source\PSoC5/tick.c **** *
 332:Generated_Source\PSoC5/tick.c **** * Summary:
 333:Generated_Source\PSoC5/tick.c **** *   Sets the Priority of the Interrupt. 
 334:Generated_Source\PSoC5/tick.c **** *
 335:Generated_Source\PSoC5/tick.c **** *   Note calling tick_Start or tick_StartEx will 
 336:Generated_Source\PSoC5/tick.c **** *   override any effect this API would have had. This API should only be called
 337:Generated_Source\PSoC5/tick.c **** *   after tick_Start or tick_StartEx has been called. 
 338:Generated_Source\PSoC5/tick.c **** *   To set the initial priority for the component, use the Design-Wide Resources
 339:Generated_Source\PSoC5/tick.c **** *   Interrupt Editor.
 340:Generated_Source\PSoC5/tick.c **** *
 341:Generated_Source\PSoC5/tick.c **** *   Note This API has no effect on Non-maskable interrupt NMI).
 342:Generated_Source\PSoC5/tick.c **** *
 343:Generated_Source\PSoC5/tick.c **** * Parameters:
 344:Generated_Source\PSoC5/tick.c **** *   priority: Priority of the interrupt, 0 being the highest priority
 345:Generated_Source\PSoC5/tick.c **** *             PSoC 3 and PSoC 5LP: Priority is from 0 to 7.
 346:Generated_Source\PSoC5/tick.c **** *             PSoC 4: Priority is from 0 to 3.
 347:Generated_Source\PSoC5/tick.c **** *
 348:Generated_Source\PSoC5/tick.c **** * Return:
 349:Generated_Source\PSoC5/tick.c **** *   None
 350:Generated_Source\PSoC5/tick.c **** *
 351:Generated_Source\PSoC5/tick.c **** *******************************************************************************/
 352:Generated_Source\PSoC5/tick.c **** void tick_SetPriority(uint8 priority)
 353:Generated_Source\PSoC5/tick.c **** {
 606              		.loc 1 353 0
ARM GAS  C:\Users\pajoh\AppData\Local\Temp\ccpfK10Z.s 			page 18


 607              		.cfi_startproc
 608              		@ args = 0, pretend = 0, frame = 8
 609              		@ frame_needed = 1, uses_anonymous_args = 0
 610              		@ link register save eliminated.
 611 0000 80B4     		push	{r7}
 612              		.cfi_def_cfa_offset 4
 613              		.cfi_offset 7, -4
 614 0002 83B0     		sub	sp, sp, #12
 615              		.cfi_def_cfa_offset 16
 616 0004 00AF     		add	r7, sp, #0
 617              		.cfi_def_cfa_register 7
 618 0006 0346     		mov	r3, r0
 619 0008 FB71     		strb	r3, [r7, #7]
 354:Generated_Source\PSoC5/tick.c ****     *tick_INTC_PRIOR = priority << 5;
 620              		.loc 1 354 0
 621 000a 054A     		ldr	r2, .L36
 622 000c FB79     		ldrb	r3, [r7, #7]
 623 000e 5B01     		lsls	r3, r3, #5
 624 0010 DBB2     		uxtb	r3, r3
 625 0012 1370     		strb	r3, [r2]
 355:Generated_Source\PSoC5/tick.c **** }
 626              		.loc 1 355 0
 627 0014 00BF     		nop
 628 0016 0C37     		adds	r7, r7, #12
 629              		.cfi_def_cfa_offset 4
 630 0018 BD46     		mov	sp, r7
 631              		.cfi_def_cfa_register 13
 632              		@ sp needed
 633 001a 80BC     		pop	{r7}
 634              		.cfi_restore 7
 635              		.cfi_def_cfa_offset 0
 636 001c 7047     		bx	lr
 637              	.L37:
 638 001e 00BF     		.align	2
 639              	.L36:
 640 0020 00E400E0 		.word	-536812544
 641              		.cfi_endproc
 642              	.LFE6:
 643              		.size	tick_SetPriority, .-tick_SetPriority
 644              		.section	.text.tick_GetPriority,"ax",%progbits
 645              		.align	2
 646              		.global	tick_GetPriority
 647              		.thumb
 648              		.thumb_func
 649              		.type	tick_GetPriority, %function
 650              	tick_GetPriority:
 651              	.LFB7:
 356:Generated_Source\PSoC5/tick.c **** 
 357:Generated_Source\PSoC5/tick.c **** 
 358:Generated_Source\PSoC5/tick.c **** /*******************************************************************************
 359:Generated_Source\PSoC5/tick.c **** * Function Name: tick_GetPriority
 360:Generated_Source\PSoC5/tick.c **** ********************************************************************************
 361:Generated_Source\PSoC5/tick.c **** *
 362:Generated_Source\PSoC5/tick.c **** * Summary:
 363:Generated_Source\PSoC5/tick.c **** *   Gets the Priority of the Interrupt.
 364:Generated_Source\PSoC5/tick.c **** *
 365:Generated_Source\PSoC5/tick.c **** * Parameters:
ARM GAS  C:\Users\pajoh\AppData\Local\Temp\ccpfK10Z.s 			page 19


 366:Generated_Source\PSoC5/tick.c **** *   None
 367:Generated_Source\PSoC5/tick.c **** *
 368:Generated_Source\PSoC5/tick.c **** * Return:
 369:Generated_Source\PSoC5/tick.c **** *   Priority of the interrupt, 0 being the highest priority
 370:Generated_Source\PSoC5/tick.c **** *    PSoC 3 and PSoC 5LP: Priority is from 0 to 7.
 371:Generated_Source\PSoC5/tick.c **** *    PSoC 4: Priority is from 0 to 3.
 372:Generated_Source\PSoC5/tick.c **** *
 373:Generated_Source\PSoC5/tick.c **** *******************************************************************************/
 374:Generated_Source\PSoC5/tick.c **** uint8 tick_GetPriority(void)
 375:Generated_Source\PSoC5/tick.c **** {
 652              		.loc 1 375 0
 653              		.cfi_startproc
 654              		@ args = 0, pretend = 0, frame = 8
 655              		@ frame_needed = 1, uses_anonymous_args = 0
 656              		@ link register save eliminated.
 657 0000 80B4     		push	{r7}
 658              		.cfi_def_cfa_offset 4
 659              		.cfi_offset 7, -4
 660 0002 83B0     		sub	sp, sp, #12
 661              		.cfi_def_cfa_offset 16
 662 0004 00AF     		add	r7, sp, #0
 663              		.cfi_def_cfa_register 7
 376:Generated_Source\PSoC5/tick.c ****     uint8 priority;
 377:Generated_Source\PSoC5/tick.c **** 
 378:Generated_Source\PSoC5/tick.c **** 
 379:Generated_Source\PSoC5/tick.c ****     priority = *tick_INTC_PRIOR >> 5;
 664              		.loc 1 379 0
 665 0006 054B     		ldr	r3, .L40
 666 0008 1B78     		ldrb	r3, [r3]
 667 000a DBB2     		uxtb	r3, r3
 668 000c 5B09     		lsrs	r3, r3, #5
 669 000e FB71     		strb	r3, [r7, #7]
 380:Generated_Source\PSoC5/tick.c **** 
 381:Generated_Source\PSoC5/tick.c ****     return priority;
 670              		.loc 1 381 0
 671 0010 FB79     		ldrb	r3, [r7, #7]	@ zero_extendqisi2
 382:Generated_Source\PSoC5/tick.c **** }
 672              		.loc 1 382 0
 673 0012 1846     		mov	r0, r3
 674 0014 0C37     		adds	r7, r7, #12
 675              		.cfi_def_cfa_offset 4
 676 0016 BD46     		mov	sp, r7
 677              		.cfi_def_cfa_register 13
 678              		@ sp needed
 679 0018 80BC     		pop	{r7}
 680              		.cfi_restore 7
 681              		.cfi_def_cfa_offset 0
 682 001a 7047     		bx	lr
 683              	.L41:
 684              		.align	2
 685              	.L40:
 686 001c 00E400E0 		.word	-536812544
 687              		.cfi_endproc
 688              	.LFE7:
 689              		.size	tick_GetPriority, .-tick_GetPriority
 690              		.section	.text.tick_Enable,"ax",%progbits
 691              		.align	2
ARM GAS  C:\Users\pajoh\AppData\Local\Temp\ccpfK10Z.s 			page 20


 692              		.global	tick_Enable
 693              		.thumb
 694              		.thumb_func
 695              		.type	tick_Enable, %function
 696              	tick_Enable:
 697              	.LFB8:
 383:Generated_Source\PSoC5/tick.c **** 
 384:Generated_Source\PSoC5/tick.c **** 
 385:Generated_Source\PSoC5/tick.c **** /*******************************************************************************
 386:Generated_Source\PSoC5/tick.c **** * Function Name: tick_Enable
 387:Generated_Source\PSoC5/tick.c **** ********************************************************************************
 388:Generated_Source\PSoC5/tick.c **** *
 389:Generated_Source\PSoC5/tick.c **** * Summary:
 390:Generated_Source\PSoC5/tick.c **** *   Enables the interrupt to the interrupt controller. Do not call this function
 391:Generated_Source\PSoC5/tick.c **** *   unless ISR_Start() has been called or the functionality of the ISR_Start() 
 392:Generated_Source\PSoC5/tick.c **** *   function, which sets the vector and the priority, has been called.
 393:Generated_Source\PSoC5/tick.c **** *
 394:Generated_Source\PSoC5/tick.c **** * Parameters:
 395:Generated_Source\PSoC5/tick.c **** *   None
 396:Generated_Source\PSoC5/tick.c **** *
 397:Generated_Source\PSoC5/tick.c **** * Return:
 398:Generated_Source\PSoC5/tick.c **** *   None
 399:Generated_Source\PSoC5/tick.c **** *
 400:Generated_Source\PSoC5/tick.c **** *******************************************************************************/
 401:Generated_Source\PSoC5/tick.c **** void tick_Enable(void)
 402:Generated_Source\PSoC5/tick.c **** {
 698              		.loc 1 402 0
 699              		.cfi_startproc
 700              		@ args = 0, pretend = 0, frame = 0
 701              		@ frame_needed = 1, uses_anonymous_args = 0
 702              		@ link register save eliminated.
 703 0000 80B4     		push	{r7}
 704              		.cfi_def_cfa_offset 4
 705              		.cfi_offset 7, -4
 706 0002 00AF     		add	r7, sp, #0
 707              		.cfi_def_cfa_register 7
 403:Generated_Source\PSoC5/tick.c ****     /* Enable the general interrupt. */
 404:Generated_Source\PSoC5/tick.c ****     *tick_INTC_SET_EN = tick__INTC_MASK;
 708              		.loc 1 404 0
 709 0004 034B     		ldr	r3, .L43
 710 0006 0122     		movs	r2, #1
 711 0008 1A60     		str	r2, [r3]
 405:Generated_Source\PSoC5/tick.c **** }
 712              		.loc 1 405 0
 713 000a 00BF     		nop
 714 000c BD46     		mov	sp, r7
 715              		.cfi_def_cfa_register 13
 716              		@ sp needed
 717 000e 80BC     		pop	{r7}
 718              		.cfi_restore 7
 719              		.cfi_def_cfa_offset 0
 720 0010 7047     		bx	lr
 721              	.L44:
 722 0012 00BF     		.align	2
 723              	.L43:
 724 0014 00E100E0 		.word	-536813312
 725              		.cfi_endproc
ARM GAS  C:\Users\pajoh\AppData\Local\Temp\ccpfK10Z.s 			page 21


 726              	.LFE8:
 727              		.size	tick_Enable, .-tick_Enable
 728              		.section	.text.tick_GetState,"ax",%progbits
 729              		.align	2
 730              		.global	tick_GetState
 731              		.thumb
 732              		.thumb_func
 733              		.type	tick_GetState, %function
 734              	tick_GetState:
 735              	.LFB9:
 406:Generated_Source\PSoC5/tick.c **** 
 407:Generated_Source\PSoC5/tick.c **** 
 408:Generated_Source\PSoC5/tick.c **** /*******************************************************************************
 409:Generated_Source\PSoC5/tick.c **** * Function Name: tick_GetState
 410:Generated_Source\PSoC5/tick.c **** ********************************************************************************
 411:Generated_Source\PSoC5/tick.c **** *
 412:Generated_Source\PSoC5/tick.c **** * Summary:
 413:Generated_Source\PSoC5/tick.c **** *   Gets the state (enabled, disabled) of the Interrupt.
 414:Generated_Source\PSoC5/tick.c **** *
 415:Generated_Source\PSoC5/tick.c **** * Parameters:
 416:Generated_Source\PSoC5/tick.c **** *   None
 417:Generated_Source\PSoC5/tick.c **** *
 418:Generated_Source\PSoC5/tick.c **** * Return:
 419:Generated_Source\PSoC5/tick.c **** *   1 if enabled, 0 if disabled.
 420:Generated_Source\PSoC5/tick.c **** *
 421:Generated_Source\PSoC5/tick.c **** *******************************************************************************/
 422:Generated_Source\PSoC5/tick.c **** uint8 tick_GetState(void)
 423:Generated_Source\PSoC5/tick.c **** {
 736              		.loc 1 423 0
 737              		.cfi_startproc
 738              		@ args = 0, pretend = 0, frame = 0
 739              		@ frame_needed = 1, uses_anonymous_args = 0
 740              		@ link register save eliminated.
 741 0000 80B4     		push	{r7}
 742              		.cfi_def_cfa_offset 4
 743              		.cfi_offset 7, -4
 744 0002 00AF     		add	r7, sp, #0
 745              		.cfi_def_cfa_register 7
 424:Generated_Source\PSoC5/tick.c ****     /* Get the state of the general interrupt. */
 425:Generated_Source\PSoC5/tick.c ****     return ((*tick_INTC_SET_EN & (uint32)tick__INTC_MASK) != 0u) ? 1u:0u;
 746              		.loc 1 425 0
 747 0004 044B     		ldr	r3, .L47
 748 0006 1B68     		ldr	r3, [r3]
 749 0008 DBB2     		uxtb	r3, r3
 750 000a 03F00103 		and	r3, r3, #1
 751 000e DBB2     		uxtb	r3, r3
 426:Generated_Source\PSoC5/tick.c **** }
 752              		.loc 1 426 0
 753 0010 1846     		mov	r0, r3
 754 0012 BD46     		mov	sp, r7
 755              		.cfi_def_cfa_register 13
 756              		@ sp needed
 757 0014 80BC     		pop	{r7}
 758              		.cfi_restore 7
 759              		.cfi_def_cfa_offset 0
 760 0016 7047     		bx	lr
 761              	.L48:
ARM GAS  C:\Users\pajoh\AppData\Local\Temp\ccpfK10Z.s 			page 22


 762              		.align	2
 763              	.L47:
 764 0018 00E100E0 		.word	-536813312
 765              		.cfi_endproc
 766              	.LFE9:
 767              		.size	tick_GetState, .-tick_GetState
 768              		.section	.text.tick_Disable,"ax",%progbits
 769              		.align	2
 770              		.global	tick_Disable
 771              		.thumb
 772              		.thumb_func
 773              		.type	tick_Disable, %function
 774              	tick_Disable:
 775              	.LFB10:
 427:Generated_Source\PSoC5/tick.c **** 
 428:Generated_Source\PSoC5/tick.c **** 
 429:Generated_Source\PSoC5/tick.c **** /*******************************************************************************
 430:Generated_Source\PSoC5/tick.c **** * Function Name: tick_Disable
 431:Generated_Source\PSoC5/tick.c **** ********************************************************************************
 432:Generated_Source\PSoC5/tick.c **** *
 433:Generated_Source\PSoC5/tick.c **** * Summary:
 434:Generated_Source\PSoC5/tick.c **** *   Disables the Interrupt in the interrupt controller.
 435:Generated_Source\PSoC5/tick.c **** *
 436:Generated_Source\PSoC5/tick.c **** * Parameters:
 437:Generated_Source\PSoC5/tick.c **** *   None
 438:Generated_Source\PSoC5/tick.c **** *
 439:Generated_Source\PSoC5/tick.c **** * Return:
 440:Generated_Source\PSoC5/tick.c **** *   None
 441:Generated_Source\PSoC5/tick.c **** *
 442:Generated_Source\PSoC5/tick.c **** *******************************************************************************/
 443:Generated_Source\PSoC5/tick.c **** void tick_Disable(void)
 444:Generated_Source\PSoC5/tick.c **** {
 776              		.loc 1 444 0
 777              		.cfi_startproc
 778              		@ args = 0, pretend = 0, frame = 0
 779              		@ frame_needed = 1, uses_anonymous_args = 0
 780              		@ link register save eliminated.
 781 0000 80B4     		push	{r7}
 782              		.cfi_def_cfa_offset 4
 783              		.cfi_offset 7, -4
 784 0002 00AF     		add	r7, sp, #0
 785              		.cfi_def_cfa_register 7
 445:Generated_Source\PSoC5/tick.c ****     /* Disable the general interrupt. */
 446:Generated_Source\PSoC5/tick.c ****     *tick_INTC_CLR_EN = tick__INTC_MASK;
 786              		.loc 1 446 0
 787 0004 034B     		ldr	r3, .L50
 788 0006 0122     		movs	r2, #1
 789 0008 1A60     		str	r2, [r3]
 447:Generated_Source\PSoC5/tick.c **** }
 790              		.loc 1 447 0
 791 000a 00BF     		nop
 792 000c BD46     		mov	sp, r7
 793              		.cfi_def_cfa_register 13
 794              		@ sp needed
 795 000e 80BC     		pop	{r7}
 796              		.cfi_restore 7
 797              		.cfi_def_cfa_offset 0
ARM GAS  C:\Users\pajoh\AppData\Local\Temp\ccpfK10Z.s 			page 23


 798 0010 7047     		bx	lr
 799              	.L51:
 800 0012 00BF     		.align	2
 801              	.L50:
 802 0014 80E100E0 		.word	-536813184
 803              		.cfi_endproc
 804              	.LFE10:
 805              		.size	tick_Disable, .-tick_Disable
 806              		.section	.text.tick_SetPending,"ax",%progbits
 807              		.align	2
 808              		.global	tick_SetPending
 809              		.thumb
 810              		.thumb_func
 811              		.type	tick_SetPending, %function
 812              	tick_SetPending:
 813              	.LFB11:
 448:Generated_Source\PSoC5/tick.c **** 
 449:Generated_Source\PSoC5/tick.c **** 
 450:Generated_Source\PSoC5/tick.c **** /*******************************************************************************
 451:Generated_Source\PSoC5/tick.c **** * Function Name: tick_SetPending
 452:Generated_Source\PSoC5/tick.c **** ********************************************************************************
 453:Generated_Source\PSoC5/tick.c **** *
 454:Generated_Source\PSoC5/tick.c **** * Summary:
 455:Generated_Source\PSoC5/tick.c **** *   Causes the Interrupt to enter the pending state, a software method of
 456:Generated_Source\PSoC5/tick.c **** *   generating the interrupt.
 457:Generated_Source\PSoC5/tick.c **** *
 458:Generated_Source\PSoC5/tick.c **** * Parameters:
 459:Generated_Source\PSoC5/tick.c **** *   None
 460:Generated_Source\PSoC5/tick.c **** *
 461:Generated_Source\PSoC5/tick.c **** * Return:
 462:Generated_Source\PSoC5/tick.c **** *   None
 463:Generated_Source\PSoC5/tick.c **** *
 464:Generated_Source\PSoC5/tick.c **** * Side Effects:
 465:Generated_Source\PSoC5/tick.c **** *   If interrupts are enabled and the interrupt is set up properly, the ISR is
 466:Generated_Source\PSoC5/tick.c **** *   entered (depending on the priority of this interrupt and other pending 
 467:Generated_Source\PSoC5/tick.c **** *   interrupts).
 468:Generated_Source\PSoC5/tick.c **** *
 469:Generated_Source\PSoC5/tick.c **** *******************************************************************************/
 470:Generated_Source\PSoC5/tick.c **** void tick_SetPending(void)
 471:Generated_Source\PSoC5/tick.c **** {
 814              		.loc 1 471 0
 815              		.cfi_startproc
 816              		@ args = 0, pretend = 0, frame = 0
 817              		@ frame_needed = 1, uses_anonymous_args = 0
 818              		@ link register save eliminated.
 819 0000 80B4     		push	{r7}
 820              		.cfi_def_cfa_offset 4
 821              		.cfi_offset 7, -4
 822 0002 00AF     		add	r7, sp, #0
 823              		.cfi_def_cfa_register 7
 472:Generated_Source\PSoC5/tick.c ****     *tick_INTC_SET_PD = tick__INTC_MASK;
 824              		.loc 1 472 0
 825 0004 034B     		ldr	r3, .L53
 826 0006 0122     		movs	r2, #1
 827 0008 1A60     		str	r2, [r3]
 473:Generated_Source\PSoC5/tick.c **** }
 828              		.loc 1 473 0
ARM GAS  C:\Users\pajoh\AppData\Local\Temp\ccpfK10Z.s 			page 24


 829 000a 00BF     		nop
 830 000c BD46     		mov	sp, r7
 831              		.cfi_def_cfa_register 13
 832              		@ sp needed
 833 000e 80BC     		pop	{r7}
 834              		.cfi_restore 7
 835              		.cfi_def_cfa_offset 0
 836 0010 7047     		bx	lr
 837              	.L54:
 838 0012 00BF     		.align	2
 839              	.L53:
 840 0014 00E200E0 		.word	-536813056
 841              		.cfi_endproc
 842              	.LFE11:
 843              		.size	tick_SetPending, .-tick_SetPending
 844              		.section	.text.tick_ClearPending,"ax",%progbits
 845              		.align	2
 846              		.global	tick_ClearPending
 847              		.thumb
 848              		.thumb_func
 849              		.type	tick_ClearPending, %function
 850              	tick_ClearPending:
 851              	.LFB12:
 474:Generated_Source\PSoC5/tick.c **** 
 475:Generated_Source\PSoC5/tick.c **** 
 476:Generated_Source\PSoC5/tick.c **** /*******************************************************************************
 477:Generated_Source\PSoC5/tick.c **** * Function Name: tick_ClearPending
 478:Generated_Source\PSoC5/tick.c **** ********************************************************************************
 479:Generated_Source\PSoC5/tick.c **** *
 480:Generated_Source\PSoC5/tick.c **** * Summary:
 481:Generated_Source\PSoC5/tick.c **** *   Clears a pending interrupt in the interrupt controller.
 482:Generated_Source\PSoC5/tick.c **** *
 483:Generated_Source\PSoC5/tick.c **** *   Note Some interrupt sources are clear-on-read and require the block 
 484:Generated_Source\PSoC5/tick.c **** *   interrupt/status register to be read/cleared with the appropriate block API 
 485:Generated_Source\PSoC5/tick.c **** *   (GPIO, UART, and so on). Otherwise the ISR will continue to remain in 
 486:Generated_Source\PSoC5/tick.c **** *   pending state even though the interrupt itself is cleared using this API.
 487:Generated_Source\PSoC5/tick.c **** *
 488:Generated_Source\PSoC5/tick.c **** * Parameters:
 489:Generated_Source\PSoC5/tick.c **** *   None
 490:Generated_Source\PSoC5/tick.c **** *
 491:Generated_Source\PSoC5/tick.c **** * Return:
 492:Generated_Source\PSoC5/tick.c **** *   None
 493:Generated_Source\PSoC5/tick.c **** *
 494:Generated_Source\PSoC5/tick.c **** *******************************************************************************/
 495:Generated_Source\PSoC5/tick.c **** void tick_ClearPending(void)
 496:Generated_Source\PSoC5/tick.c **** {
 852              		.loc 1 496 0
 853              		.cfi_startproc
 854              		@ args = 0, pretend = 0, frame = 0
 855              		@ frame_needed = 1, uses_anonymous_args = 0
 856              		@ link register save eliminated.
 857 0000 80B4     		push	{r7}
 858              		.cfi_def_cfa_offset 4
 859              		.cfi_offset 7, -4
 860 0002 00AF     		add	r7, sp, #0
 861              		.cfi_def_cfa_register 7
 497:Generated_Source\PSoC5/tick.c ****     *tick_INTC_CLR_PD = tick__INTC_MASK;
ARM GAS  C:\Users\pajoh\AppData\Local\Temp\ccpfK10Z.s 			page 25


 862              		.loc 1 497 0
 863 0004 034B     		ldr	r3, .L56
 864 0006 0122     		movs	r2, #1
 865 0008 1A60     		str	r2, [r3]
 498:Generated_Source\PSoC5/tick.c **** }
 866              		.loc 1 498 0
 867 000a 00BF     		nop
 868 000c BD46     		mov	sp, r7
 869              		.cfi_def_cfa_register 13
 870              		@ sp needed
 871 000e 80BC     		pop	{r7}
 872              		.cfi_restore 7
 873              		.cfi_def_cfa_offset 0
 874 0010 7047     		bx	lr
 875              	.L57:
 876 0012 00BF     		.align	2
 877              	.L56:
 878 0014 80E200E0 		.word	-536812928
 879              		.cfi_endproc
 880              	.LFE12:
 881              		.size	tick_ClearPending, .-tick_ClearPending
 882              		.text
 883              	.Letext0:
 884              		.file 2 "Generated_Source\\PSoC5/cytypes.h"
 885              		.section	.debug_info,"",%progbits
 886              	.Ldebug_info0:
 887 0000 4C030000 		.4byte	0x34c
 888 0004 0400     		.2byte	0x4
 889 0006 00000000 		.4byte	.Ldebug_abbrev0
 890 000a 04       		.byte	0x4
 891 000b 01       		.uleb128 0x1
 892 000c 1D000000 		.4byte	.LASF51
 893 0010 0C       		.byte	0xc
 894 0011 C5010000 		.4byte	.LASF52
 895 0015 1E010000 		.4byte	.LASF53
 896 0019 00000000 		.4byte	.Ldebug_ranges0+0
 897 001d 00000000 		.4byte	0
 898 0021 00000000 		.4byte	.Ldebug_line0
 899 0025 02       		.uleb128 0x2
 900 0026 04       		.byte	0x4
 901 0027 05       		.byte	0x5
 902 0028 696E7400 		.ascii	"int\000"
 903 002c 03       		.uleb128 0x3
 904 002d 04       		.byte	0x4
 905 002e 07       		.byte	0x7
 906 002f 5A020000 		.4byte	.LASF0
 907 0033 03       		.uleb128 0x3
 908 0034 08       		.byte	0x8
 909 0035 05       		.byte	0x5
 910 0036 DE020000 		.4byte	.LASF1
 911 003a 03       		.uleb128 0x3
 912 003b 08       		.byte	0x8
 913 003c 04       		.byte	0x4
 914 003d 4D030000 		.4byte	.LASF2
 915 0041 03       		.uleb128 0x3
 916 0042 01       		.byte	0x1
 917 0043 06       		.byte	0x6
ARM GAS  C:\Users\pajoh\AppData\Local\Temp\ccpfK10Z.s 			page 26


 918 0044 59030000 		.4byte	.LASF3
 919 0048 03       		.uleb128 0x3
 920 0049 01       		.byte	0x1
 921 004a 08       		.byte	0x8
 922 004b 74010000 		.4byte	.LASF4
 923 004f 03       		.uleb128 0x3
 924 0050 02       		.byte	0x2
 925 0051 05       		.byte	0x5
 926 0052 00030000 		.4byte	.LASF5
 927 0056 03       		.uleb128 0x3
 928 0057 02       		.byte	0x2
 929 0058 07       		.byte	0x7
 930 0059 CF000000 		.4byte	.LASF6
 931 005d 03       		.uleb128 0x3
 932 005e 04       		.byte	0x4
 933 005f 05       		.byte	0x5
 934 0060 24030000 		.4byte	.LASF7
 935 0064 03       		.uleb128 0x3
 936 0065 04       		.byte	0x4
 937 0066 07       		.byte	0x7
 938 0067 93010000 		.4byte	.LASF8
 939 006b 03       		.uleb128 0x3
 940 006c 08       		.byte	0x8
 941 006d 07       		.byte	0x7
 942 006e 6F020000 		.4byte	.LASF9
 943 0072 03       		.uleb128 0x3
 944 0073 04       		.byte	0x4
 945 0074 07       		.byte	0x7
 946 0075 D5020000 		.4byte	.LASF10
 947 0079 03       		.uleb128 0x3
 948 007a 01       		.byte	0x1
 949 007b 08       		.byte	0x8
 950 007c EC020000 		.4byte	.LASF11
 951 0080 04       		.uleb128 0x4
 952 0081 04       		.byte	0x4
 953 0082 86000000 		.4byte	0x86
 954 0086 05       		.uleb128 0x5
 955 0087 06       		.uleb128 0x6
 956 0088 14030000 		.4byte	.LASF12
 957 008c 02       		.byte	0x2
 958 008d 9201     		.2byte	0x192
 959 008f 48000000 		.4byte	0x48
 960 0093 06       		.uleb128 0x6
 961 0094 10020000 		.4byte	.LASF13
 962 0098 02       		.byte	0x2
 963 0099 9301     		.2byte	0x193
 964 009b 56000000 		.4byte	0x56
 965 009f 06       		.uleb128 0x6
 966 00a0 31020000 		.4byte	.LASF14
 967 00a4 02       		.byte	0x2
 968 00a5 9401     		.2byte	0x194
 969 00a7 64000000 		.4byte	0x64
 970 00ab 06       		.uleb128 0x6
 971 00ac A5010000 		.4byte	.LASF15
 972 00b0 02       		.byte	0x2
 973 00b1 9701     		.2byte	0x197
 974 00b3 5D000000 		.4byte	0x5d
ARM GAS  C:\Users\pajoh\AppData\Local\Temp\ccpfK10Z.s 			page 27


 975 00b7 03       		.uleb128 0x3
 976 00b8 04       		.byte	0x4
 977 00b9 04       		.byte	0x4
 978 00ba 18010000 		.4byte	.LASF16
 979 00be 03       		.uleb128 0x3
 980 00bf 08       		.byte	0x8
 981 00c0 04       		.byte	0x4
 982 00c1 F1000000 		.4byte	.LASF17
 983 00c5 06       		.uleb128 0x6
 984 00c6 8E010000 		.4byte	.LASF18
 985 00ca 02       		.byte	0x2
 986 00cb 3C02     		.2byte	0x23c
 987 00cd D1000000 		.4byte	0xd1
 988 00d1 07       		.uleb128 0x7
 989 00d2 87000000 		.4byte	0x87
 990 00d6 07       		.uleb128 0x7
 991 00d7 93000000 		.4byte	0x93
 992 00db 06       		.uleb128 0x6
 993 00dc 17000000 		.4byte	.LASF19
 994 00e0 02       		.byte	0x2
 995 00e1 3E02     		.2byte	0x23e
 996 00e3 E7000000 		.4byte	0xe7
 997 00e7 07       		.uleb128 0x7
 998 00e8 9F000000 		.4byte	0x9f
 999 00ec 06       		.uleb128 0x6
 1000 00ed B0020000 		.4byte	.LASF20
 1001 00f1 02       		.byte	0x2
 1002 00f2 4E02     		.2byte	0x24e
 1003 00f4 80000000 		.4byte	0x80
 1004 00f8 08       		.uleb128 0x8
 1005 00f9 B1010000 		.4byte	.LASF21
 1006 00fd 01       		.byte	0x1
 1007 00fe 50       		.byte	0x50
 1008 00ff 00000000 		.4byte	.LFB0
 1009 0103 20000000 		.4byte	.LFE0-.LFB0
 1010 0107 01       		.uleb128 0x1
 1011 0108 9C       		.byte	0x9c
 1012 0109 09       		.uleb128 0x9
 1013 010a BD020000 		.4byte	.LASF24
 1014 010e 01       		.byte	0x1
 1015 010f 7B       		.byte	0x7b
 1016 0110 00000000 		.4byte	.LFB1
 1017 0114 24000000 		.4byte	.LFE1-.LFB1
 1018 0118 01       		.uleb128 0x1
 1019 0119 9C       		.byte	0x9c
 1020 011a 2D010000 		.4byte	0x12d
 1021 011e 0A       		.uleb128 0xa
 1022 011f 67020000 		.4byte	.LASF26
 1023 0123 01       		.byte	0x1
 1024 0124 7B       		.byte	0x7b
 1025 0125 EC000000 		.4byte	0xec
 1026 0129 02       		.uleb128 0x2
 1027 012a 91       		.byte	0x91
 1028 012b 74       		.sleb128 -12
 1029 012c 00       		.byte	0
 1030 012d 08       		.uleb128 0x8
 1031 012e 27020000 		.4byte	.LASF22
ARM GAS  C:\Users\pajoh\AppData\Local\Temp\ccpfK10Z.s 			page 28


 1032 0132 01       		.byte	0x1
 1033 0133 99       		.byte	0x99
 1034 0134 00000000 		.4byte	.LFB2
 1035 0138 18000000 		.4byte	.LFE2-.LFB2
 1036 013c 01       		.uleb128 0x1
 1037 013d 9C       		.byte	0x9c
 1038 013e 08       		.uleb128 0x8
 1039 013f C0000000 		.4byte	.LASF23
 1040 0143 01       		.byte	0x1
 1041 0144 B3       		.byte	0xb3
 1042 0145 00000000 		.4byte	.LFB3
 1043 0149 8C020000 		.4byte	.LFE3-.LFB3
 1044 014d 01       		.uleb128 0x1
 1045 014e 9C       		.byte	0x9c
 1046 014f 0B       		.uleb128 0xb
 1047 0150 E2000000 		.4byte	.LASF25
 1048 0154 01       		.byte	0x1
 1049 0155 2601     		.2byte	0x126
 1050 0157 00000000 		.4byte	.LFB4
 1051 015b 24000000 		.4byte	.LFE4-.LFB4
 1052 015f 01       		.uleb128 0x1
 1053 0160 9C       		.byte	0x9c
 1054 0161 84010000 		.4byte	0x184
 1055 0165 0C       		.uleb128 0xc
 1056 0166 67020000 		.4byte	.LASF26
 1057 016a 01       		.byte	0x1
 1058 016b 2601     		.2byte	0x126
 1059 016d EC000000 		.4byte	0xec
 1060 0171 02       		.uleb128 0x2
 1061 0172 91       		.byte	0x91
 1062 0173 6C       		.sleb128 -20
 1063 0174 0D       		.uleb128 0xd
 1064 0175 F1020000 		.4byte	.LASF27
 1065 0179 01       		.byte	0x1
 1066 017a 2801     		.2byte	0x128
 1067 017c 84010000 		.4byte	0x184
 1068 0180 02       		.uleb128 0x2
 1069 0181 91       		.byte	0x91
 1070 0182 74       		.sleb128 -12
 1071 0183 00       		.byte	0
 1072 0184 04       		.uleb128 0x4
 1073 0185 04       		.byte	0x4
 1074 0186 EC000000 		.4byte	0xec
 1075 018a 0E       		.uleb128 0xe
 1076 018b 09010000 		.4byte	.LASF30
 1077 018f 01       		.byte	0x1
 1078 0190 3E01     		.2byte	0x13e
 1079 0192 EC000000 		.4byte	0xec
 1080 0196 00000000 		.4byte	.LFB5
 1081 019a 20000000 		.4byte	.LFE5-.LFB5
 1082 019e 01       		.uleb128 0x1
 1083 019f 9C       		.byte	0x9c
 1084 01a0 B4010000 		.4byte	0x1b4
 1085 01a4 0D       		.uleb128 0xd
 1086 01a5 F1020000 		.4byte	.LASF27
 1087 01a9 01       		.byte	0x1
 1088 01aa 4001     		.2byte	0x140
ARM GAS  C:\Users\pajoh\AppData\Local\Temp\ccpfK10Z.s 			page 29


 1089 01ac 84010000 		.4byte	0x184
 1090 01b0 02       		.uleb128 0x2
 1091 01b1 91       		.byte	0x91
 1092 01b2 74       		.sleb128 -12
 1093 01b3 00       		.byte	0
 1094 01b4 0B       		.uleb128 0xb
 1095 01b5 86020000 		.4byte	.LASF28
 1096 01b9 01       		.byte	0x1
 1097 01ba 6001     		.2byte	0x160
 1098 01bc 00000000 		.4byte	.LFB6
 1099 01c0 24000000 		.4byte	.LFE6-.LFB6
 1100 01c4 01       		.uleb128 0x1
 1101 01c5 9C       		.byte	0x9c
 1102 01c6 DA010000 		.4byte	0x1da
 1103 01ca 0C       		.uleb128 0xc
 1104 01cb BC010000 		.4byte	.LASF29
 1105 01cf 01       		.byte	0x1
 1106 01d0 6001     		.2byte	0x160
 1107 01d2 87000000 		.4byte	0x87
 1108 01d6 02       		.uleb128 0x2
 1109 01d7 91       		.byte	0x91
 1110 01d8 77       		.sleb128 -9
 1111 01d9 00       		.byte	0
 1112 01da 0E       		.uleb128 0xe
 1113 01db F8000000 		.4byte	.LASF31
 1114 01df 01       		.byte	0x1
 1115 01e0 7601     		.2byte	0x176
 1116 01e2 87000000 		.4byte	0x87
 1117 01e6 00000000 		.4byte	.LFB7
 1118 01ea 20000000 		.4byte	.LFE7-.LFB7
 1119 01ee 01       		.uleb128 0x1
 1120 01ef 9C       		.byte	0x9c
 1121 01f0 04020000 		.4byte	0x204
 1122 01f4 0D       		.uleb128 0xd
 1123 01f5 BC010000 		.4byte	.LASF29
 1124 01f9 01       		.byte	0x1
 1125 01fa 7801     		.2byte	0x178
 1126 01fc 87000000 		.4byte	0x87
 1127 0200 02       		.uleb128 0x2
 1128 0201 91       		.byte	0x91
 1129 0202 77       		.sleb128 -9
 1130 0203 00       		.byte	0
 1131 0204 0F       		.uleb128 0xf
 1132 0205 A4020000 		.4byte	.LASF32
 1133 0209 01       		.byte	0x1
 1134 020a 9101     		.2byte	0x191
 1135 020c 00000000 		.4byte	.LFB8
 1136 0210 18000000 		.4byte	.LFE8-.LFB8
 1137 0214 01       		.uleb128 0x1
 1138 0215 9C       		.byte	0x9c
 1139 0216 10       		.uleb128 0x10
 1140 0217 2D030000 		.4byte	.LASF54
 1141 021b 01       		.byte	0x1
 1142 021c A601     		.2byte	0x1a6
 1143 021e 87000000 		.4byte	0x87
 1144 0222 00000000 		.4byte	.LFB9
 1145 0226 1C000000 		.4byte	.LFE9-.LFB9
ARM GAS  C:\Users\pajoh\AppData\Local\Temp\ccpfK10Z.s 			page 30


 1146 022a 01       		.uleb128 0x1
 1147 022b 9C       		.byte	0x9c
 1148 022c 0F       		.uleb128 0xf
 1149 022d 97020000 		.4byte	.LASF33
 1150 0231 01       		.byte	0x1
 1151 0232 BB01     		.2byte	0x1bb
 1152 0234 00000000 		.4byte	.LFB10
 1153 0238 18000000 		.4byte	.LFE10-.LFB10
 1154 023c 01       		.uleb128 0x1
 1155 023d 9C       		.byte	0x9c
 1156 023e 0F       		.uleb128 0xf
 1157 023f 38020000 		.4byte	.LASF34
 1158 0243 01       		.byte	0x1
 1159 0244 D601     		.2byte	0x1d6
 1160 0246 00000000 		.4byte	.LFB11
 1161 024a 18000000 		.4byte	.LFE11-.LFB11
 1162 024e 01       		.uleb128 0x1
 1163 024f 9C       		.byte	0x9c
 1164 0250 0F       		.uleb128 0xf
 1165 0251 48020000 		.4byte	.LASF35
 1166 0255 01       		.byte	0x1
 1167 0256 EF01     		.2byte	0x1ef
 1168 0258 00000000 		.4byte	.LFB12
 1169 025c 18000000 		.4byte	.LFE12-.LFB12
 1170 0260 01       		.uleb128 0x1
 1171 0261 9C       		.byte	0x9c
 1172 0262 11       		.uleb128 0x11
 1173 0263 17020000 		.4byte	.LASF36
 1174 0267 01       		.byte	0x1
 1175 0268 23       		.byte	0x23
 1176 0269 D1000000 		.4byte	0xd1
 1177 026d 11       		.uleb128 0x11
 1178 026e AB010000 		.4byte	.LASF37
 1179 0272 01       		.byte	0x1
 1180 0273 24       		.byte	0x24
 1181 0274 78020000 		.4byte	0x278
 1182 0278 07       		.uleb128 0x7
 1183 0279 AB000000 		.4byte	0xab
 1184 027d 11       		.uleb128 0x11
 1185 027e EE010000 		.4byte	.LASF38
 1186 0282 01       		.byte	0x1
 1187 0283 25       		.byte	0x25
 1188 0284 D6000000 		.4byte	0xd6
 1189 0288 11       		.uleb128 0x11
 1190 0289 CA020000 		.4byte	.LASF39
 1191 028d 01       		.byte	0x1
 1192 028e 26       		.byte	0x26
 1193 028f 78020000 		.4byte	0x278
 1194 0293 12       		.uleb128 0x12
 1195 0294 E7000000 		.4byte	0xe7
 1196 0298 A3020000 		.4byte	0x2a3
 1197 029c 13       		.uleb128 0x13
 1198 029d 72000000 		.4byte	0x72
 1199 02a1 10       		.byte	0x10
 1200 02a2 00       		.byte	0
 1201 02a3 11       		.uleb128 0x11
 1202 02a4 E3010000 		.4byte	.LASF40
ARM GAS  C:\Users\pajoh\AppData\Local\Temp\ccpfK10Z.s 			page 31


 1203 02a8 01       		.byte	0x1
 1204 02a9 27       		.byte	0x27
 1205 02aa AE020000 		.4byte	0x2ae
 1206 02ae 07       		.uleb128 0x7
 1207 02af 93020000 		.4byte	0x293
 1208 02b3 11       		.uleb128 0x11
 1209 02b4 01020000 		.4byte	.LASF41
 1210 02b8 01       		.byte	0x1
 1211 02b9 28       		.byte	0x28
 1212 02ba 78020000 		.4byte	0x278
 1213 02be 11       		.uleb128 0x11
 1214 02bf 65030000 		.4byte	.LASF42
 1215 02c3 01       		.byte	0x1
 1216 02c4 29       		.byte	0x29
 1217 02c5 78020000 		.4byte	0x278
 1218 02c9 11       		.uleb128 0x11
 1219 02ca AB000000 		.4byte	.LASF43
 1220 02ce 01       		.byte	0x1
 1221 02cf 2A       		.byte	0x2a
 1222 02d0 78020000 		.4byte	0x278
 1223 02d4 11       		.uleb128 0x11
 1224 02d5 66010000 		.4byte	.LASF44
 1225 02d9 01       		.byte	0x1
 1226 02da 2B       		.byte	0x2b
 1227 02db 78020000 		.4byte	0x278
 1228 02df 12       		.uleb128 0x12
 1229 02e0 78020000 		.4byte	0x278
 1230 02e4 F0020000 		.4byte	0x2f0
 1231 02e8 14       		.uleb128 0x14
 1232 02e9 72000000 		.4byte	0x72
 1233 02ed FF01     		.2byte	0x1ff
 1234 02ef 00       		.byte	0
 1235 02f0 11       		.uleb128 0x11
 1236 02f1 1A030000 		.4byte	.LASF45
 1237 02f5 01       		.byte	0x1
 1238 02f6 2C       		.byte	0x2c
 1239 02f7 FB020000 		.4byte	0x2fb
 1240 02fb 07       		.uleb128 0x7
 1241 02fc DF020000 		.4byte	0x2df
 1242 0300 15       		.uleb128 0x15
 1243 0301 0A030000 		.4byte	.LASF46
 1244 0305 01       		.byte	0x1
 1245 0306 2D       		.byte	0x2d
 1246 0307 78020000 		.4byte	0x278
 1247 030b 05       		.uleb128 0x5
 1248 030c 03       		.byte	0x3
 1249 030d 00000000 		.4byte	angle_old
 1250 0311 15       		.uleb128 0x15
 1251 0312 3B030000 		.4byte	.LASF47
 1252 0316 01       		.byte	0x1
 1253 0317 2E       		.byte	0x2e
 1254 0318 78020000 		.4byte	0x278
 1255 031c 05       		.uleb128 0x5
 1256 031d 03       		.byte	0x3
 1257 031e 00000000 		.4byte	axis_position_old
 1258 0322 11       		.uleb128 0x11
 1259 0323 00000000 		.4byte	.LASF48
ARM GAS  C:\Users\pajoh\AppData\Local\Temp\ccpfK10Z.s 			page 32


 1260 0327 01       		.byte	0x1
 1261 0328 2F       		.byte	0x2f
 1262 0329 78020000 		.4byte	0x278
 1263 032d 15       		.uleb128 0x15
 1264 032e 82010000 		.4byte	.LASF49
 1265 0332 01       		.byte	0x1
 1266 0333 30       		.byte	0x30
 1267 0334 25000000 		.4byte	0x25
 1268 0338 05       		.uleb128 0x5
 1269 0339 03       		.byte	0x3
 1270 033a 00000000 		.4byte	start_count
 1271 033e 15       		.uleb128 0x15
 1272 033f BA000000 		.4byte	.LASF50
 1273 0343 01       		.byte	0x1
 1274 0344 31       		.byte	0x31
 1275 0345 25000000 		.4byte	0x25
 1276 0349 05       		.uleb128 0x5
 1277 034a 03       		.byte	0x3
 1278 034b 00000000 		.4byte	count
 1279 034f 00       		.byte	0
 1280              		.section	.debug_abbrev,"",%progbits
 1281              	.Ldebug_abbrev0:
 1282 0000 01       		.uleb128 0x1
 1283 0001 11       		.uleb128 0x11
 1284 0002 01       		.byte	0x1
 1285 0003 25       		.uleb128 0x25
 1286 0004 0E       		.uleb128 0xe
 1287 0005 13       		.uleb128 0x13
 1288 0006 0B       		.uleb128 0xb
 1289 0007 03       		.uleb128 0x3
 1290 0008 0E       		.uleb128 0xe
 1291 0009 1B       		.uleb128 0x1b
 1292 000a 0E       		.uleb128 0xe
 1293 000b 55       		.uleb128 0x55
 1294 000c 17       		.uleb128 0x17
 1295 000d 11       		.uleb128 0x11
 1296 000e 01       		.uleb128 0x1
 1297 000f 10       		.uleb128 0x10
 1298 0010 17       		.uleb128 0x17
 1299 0011 00       		.byte	0
 1300 0012 00       		.byte	0
 1301 0013 02       		.uleb128 0x2
 1302 0014 24       		.uleb128 0x24
 1303 0015 00       		.byte	0
 1304 0016 0B       		.uleb128 0xb
 1305 0017 0B       		.uleb128 0xb
 1306 0018 3E       		.uleb128 0x3e
 1307 0019 0B       		.uleb128 0xb
 1308 001a 03       		.uleb128 0x3
 1309 001b 08       		.uleb128 0x8
 1310 001c 00       		.byte	0
 1311 001d 00       		.byte	0
 1312 001e 03       		.uleb128 0x3
 1313 001f 24       		.uleb128 0x24
 1314 0020 00       		.byte	0
 1315 0021 0B       		.uleb128 0xb
 1316 0022 0B       		.uleb128 0xb
ARM GAS  C:\Users\pajoh\AppData\Local\Temp\ccpfK10Z.s 			page 33


 1317 0023 3E       		.uleb128 0x3e
 1318 0024 0B       		.uleb128 0xb
 1319 0025 03       		.uleb128 0x3
 1320 0026 0E       		.uleb128 0xe
 1321 0027 00       		.byte	0
 1322 0028 00       		.byte	0
 1323 0029 04       		.uleb128 0x4
 1324 002a 0F       		.uleb128 0xf
 1325 002b 00       		.byte	0
 1326 002c 0B       		.uleb128 0xb
 1327 002d 0B       		.uleb128 0xb
 1328 002e 49       		.uleb128 0x49
 1329 002f 13       		.uleb128 0x13
 1330 0030 00       		.byte	0
 1331 0031 00       		.byte	0
 1332 0032 05       		.uleb128 0x5
 1333 0033 15       		.uleb128 0x15
 1334 0034 00       		.byte	0
 1335 0035 27       		.uleb128 0x27
 1336 0036 19       		.uleb128 0x19
 1337 0037 00       		.byte	0
 1338 0038 00       		.byte	0
 1339 0039 06       		.uleb128 0x6
 1340 003a 16       		.uleb128 0x16
 1341 003b 00       		.byte	0
 1342 003c 03       		.uleb128 0x3
 1343 003d 0E       		.uleb128 0xe
 1344 003e 3A       		.uleb128 0x3a
 1345 003f 0B       		.uleb128 0xb
 1346 0040 3B       		.uleb128 0x3b
 1347 0041 05       		.uleb128 0x5
 1348 0042 49       		.uleb128 0x49
 1349 0043 13       		.uleb128 0x13
 1350 0044 00       		.byte	0
 1351 0045 00       		.byte	0
 1352 0046 07       		.uleb128 0x7
 1353 0047 35       		.uleb128 0x35
 1354 0048 00       		.byte	0
 1355 0049 49       		.uleb128 0x49
 1356 004a 13       		.uleb128 0x13
 1357 004b 00       		.byte	0
 1358 004c 00       		.byte	0
 1359 004d 08       		.uleb128 0x8
 1360 004e 2E       		.uleb128 0x2e
 1361 004f 00       		.byte	0
 1362 0050 3F       		.uleb128 0x3f
 1363 0051 19       		.uleb128 0x19
 1364 0052 03       		.uleb128 0x3
 1365 0053 0E       		.uleb128 0xe
 1366 0054 3A       		.uleb128 0x3a
 1367 0055 0B       		.uleb128 0xb
 1368 0056 3B       		.uleb128 0x3b
 1369 0057 0B       		.uleb128 0xb
 1370 0058 27       		.uleb128 0x27
 1371 0059 19       		.uleb128 0x19
 1372 005a 11       		.uleb128 0x11
 1373 005b 01       		.uleb128 0x1
ARM GAS  C:\Users\pajoh\AppData\Local\Temp\ccpfK10Z.s 			page 34


 1374 005c 12       		.uleb128 0x12
 1375 005d 06       		.uleb128 0x6
 1376 005e 40       		.uleb128 0x40
 1377 005f 18       		.uleb128 0x18
 1378 0060 9642     		.uleb128 0x2116
 1379 0062 19       		.uleb128 0x19
 1380 0063 00       		.byte	0
 1381 0064 00       		.byte	0
 1382 0065 09       		.uleb128 0x9
 1383 0066 2E       		.uleb128 0x2e
 1384 0067 01       		.byte	0x1
 1385 0068 3F       		.uleb128 0x3f
 1386 0069 19       		.uleb128 0x19
 1387 006a 03       		.uleb128 0x3
 1388 006b 0E       		.uleb128 0xe
 1389 006c 3A       		.uleb128 0x3a
 1390 006d 0B       		.uleb128 0xb
 1391 006e 3B       		.uleb128 0x3b
 1392 006f 0B       		.uleb128 0xb
 1393 0070 27       		.uleb128 0x27
 1394 0071 19       		.uleb128 0x19
 1395 0072 11       		.uleb128 0x11
 1396 0073 01       		.uleb128 0x1
 1397 0074 12       		.uleb128 0x12
 1398 0075 06       		.uleb128 0x6
 1399 0076 40       		.uleb128 0x40
 1400 0077 18       		.uleb128 0x18
 1401 0078 9642     		.uleb128 0x2116
 1402 007a 19       		.uleb128 0x19
 1403 007b 01       		.uleb128 0x1
 1404 007c 13       		.uleb128 0x13
 1405 007d 00       		.byte	0
 1406 007e 00       		.byte	0
 1407 007f 0A       		.uleb128 0xa
 1408 0080 05       		.uleb128 0x5
 1409 0081 00       		.byte	0
 1410 0082 03       		.uleb128 0x3
 1411 0083 0E       		.uleb128 0xe
 1412 0084 3A       		.uleb128 0x3a
 1413 0085 0B       		.uleb128 0xb
 1414 0086 3B       		.uleb128 0x3b
 1415 0087 0B       		.uleb128 0xb
 1416 0088 49       		.uleb128 0x49
 1417 0089 13       		.uleb128 0x13
 1418 008a 02       		.uleb128 0x2
 1419 008b 18       		.uleb128 0x18
 1420 008c 00       		.byte	0
 1421 008d 00       		.byte	0
 1422 008e 0B       		.uleb128 0xb
 1423 008f 2E       		.uleb128 0x2e
 1424 0090 01       		.byte	0x1
 1425 0091 3F       		.uleb128 0x3f
 1426 0092 19       		.uleb128 0x19
 1427 0093 03       		.uleb128 0x3
 1428 0094 0E       		.uleb128 0xe
 1429 0095 3A       		.uleb128 0x3a
 1430 0096 0B       		.uleb128 0xb
ARM GAS  C:\Users\pajoh\AppData\Local\Temp\ccpfK10Z.s 			page 35


 1431 0097 3B       		.uleb128 0x3b
 1432 0098 05       		.uleb128 0x5
 1433 0099 27       		.uleb128 0x27
 1434 009a 19       		.uleb128 0x19
 1435 009b 11       		.uleb128 0x11
 1436 009c 01       		.uleb128 0x1
 1437 009d 12       		.uleb128 0x12
 1438 009e 06       		.uleb128 0x6
 1439 009f 40       		.uleb128 0x40
 1440 00a0 18       		.uleb128 0x18
 1441 00a1 9742     		.uleb128 0x2117
 1442 00a3 19       		.uleb128 0x19
 1443 00a4 01       		.uleb128 0x1
 1444 00a5 13       		.uleb128 0x13
 1445 00a6 00       		.byte	0
 1446 00a7 00       		.byte	0
 1447 00a8 0C       		.uleb128 0xc
 1448 00a9 05       		.uleb128 0x5
 1449 00aa 00       		.byte	0
 1450 00ab 03       		.uleb128 0x3
 1451 00ac 0E       		.uleb128 0xe
 1452 00ad 3A       		.uleb128 0x3a
 1453 00ae 0B       		.uleb128 0xb
 1454 00af 3B       		.uleb128 0x3b
 1455 00b0 05       		.uleb128 0x5
 1456 00b1 49       		.uleb128 0x49
 1457 00b2 13       		.uleb128 0x13
 1458 00b3 02       		.uleb128 0x2
 1459 00b4 18       		.uleb128 0x18
 1460 00b5 00       		.byte	0
 1461 00b6 00       		.byte	0
 1462 00b7 0D       		.uleb128 0xd
 1463 00b8 34       		.uleb128 0x34
 1464 00b9 00       		.byte	0
 1465 00ba 03       		.uleb128 0x3
 1466 00bb 0E       		.uleb128 0xe
 1467 00bc 3A       		.uleb128 0x3a
 1468 00bd 0B       		.uleb128 0xb
 1469 00be 3B       		.uleb128 0x3b
 1470 00bf 05       		.uleb128 0x5
 1471 00c0 49       		.uleb128 0x49
 1472 00c1 13       		.uleb128 0x13
 1473 00c2 02       		.uleb128 0x2
 1474 00c3 18       		.uleb128 0x18
 1475 00c4 00       		.byte	0
 1476 00c5 00       		.byte	0
 1477 00c6 0E       		.uleb128 0xe
 1478 00c7 2E       		.uleb128 0x2e
 1479 00c8 01       		.byte	0x1
 1480 00c9 3F       		.uleb128 0x3f
 1481 00ca 19       		.uleb128 0x19
 1482 00cb 03       		.uleb128 0x3
 1483 00cc 0E       		.uleb128 0xe
 1484 00cd 3A       		.uleb128 0x3a
 1485 00ce 0B       		.uleb128 0xb
 1486 00cf 3B       		.uleb128 0x3b
 1487 00d0 05       		.uleb128 0x5
ARM GAS  C:\Users\pajoh\AppData\Local\Temp\ccpfK10Z.s 			page 36


 1488 00d1 27       		.uleb128 0x27
 1489 00d2 19       		.uleb128 0x19
 1490 00d3 49       		.uleb128 0x49
 1491 00d4 13       		.uleb128 0x13
 1492 00d5 11       		.uleb128 0x11
 1493 00d6 01       		.uleb128 0x1
 1494 00d7 12       		.uleb128 0x12
 1495 00d8 06       		.uleb128 0x6
 1496 00d9 40       		.uleb128 0x40
 1497 00da 18       		.uleb128 0x18
 1498 00db 9742     		.uleb128 0x2117
 1499 00dd 19       		.uleb128 0x19
 1500 00de 01       		.uleb128 0x1
 1501 00df 13       		.uleb128 0x13
 1502 00e0 00       		.byte	0
 1503 00e1 00       		.byte	0
 1504 00e2 0F       		.uleb128 0xf
 1505 00e3 2E       		.uleb128 0x2e
 1506 00e4 00       		.byte	0
 1507 00e5 3F       		.uleb128 0x3f
 1508 00e6 19       		.uleb128 0x19
 1509 00e7 03       		.uleb128 0x3
 1510 00e8 0E       		.uleb128 0xe
 1511 00e9 3A       		.uleb128 0x3a
 1512 00ea 0B       		.uleb128 0xb
 1513 00eb 3B       		.uleb128 0x3b
 1514 00ec 05       		.uleb128 0x5
 1515 00ed 27       		.uleb128 0x27
 1516 00ee 19       		.uleb128 0x19
 1517 00ef 11       		.uleb128 0x11
 1518 00f0 01       		.uleb128 0x1
 1519 00f1 12       		.uleb128 0x12
 1520 00f2 06       		.uleb128 0x6
 1521 00f3 40       		.uleb128 0x40
 1522 00f4 18       		.uleb128 0x18
 1523 00f5 9742     		.uleb128 0x2117
 1524 00f7 19       		.uleb128 0x19
 1525 00f8 00       		.byte	0
 1526 00f9 00       		.byte	0
 1527 00fa 10       		.uleb128 0x10
 1528 00fb 2E       		.uleb128 0x2e
 1529 00fc 00       		.byte	0
 1530 00fd 3F       		.uleb128 0x3f
 1531 00fe 19       		.uleb128 0x19
 1532 00ff 03       		.uleb128 0x3
 1533 0100 0E       		.uleb128 0xe
 1534 0101 3A       		.uleb128 0x3a
 1535 0102 0B       		.uleb128 0xb
 1536 0103 3B       		.uleb128 0x3b
 1537 0104 05       		.uleb128 0x5
 1538 0105 27       		.uleb128 0x27
 1539 0106 19       		.uleb128 0x19
 1540 0107 49       		.uleb128 0x49
 1541 0108 13       		.uleb128 0x13
 1542 0109 11       		.uleb128 0x11
 1543 010a 01       		.uleb128 0x1
 1544 010b 12       		.uleb128 0x12
ARM GAS  C:\Users\pajoh\AppData\Local\Temp\ccpfK10Z.s 			page 37


 1545 010c 06       		.uleb128 0x6
 1546 010d 40       		.uleb128 0x40
 1547 010e 18       		.uleb128 0x18
 1548 010f 9742     		.uleb128 0x2117
 1549 0111 19       		.uleb128 0x19
 1550 0112 00       		.byte	0
 1551 0113 00       		.byte	0
 1552 0114 11       		.uleb128 0x11
 1553 0115 34       		.uleb128 0x34
 1554 0116 00       		.byte	0
 1555 0117 03       		.uleb128 0x3
 1556 0118 0E       		.uleb128 0xe
 1557 0119 3A       		.uleb128 0x3a
 1558 011a 0B       		.uleb128 0xb
 1559 011b 3B       		.uleb128 0x3b
 1560 011c 0B       		.uleb128 0xb
 1561 011d 49       		.uleb128 0x49
 1562 011e 13       		.uleb128 0x13
 1563 011f 3F       		.uleb128 0x3f
 1564 0120 19       		.uleb128 0x19
 1565 0121 3C       		.uleb128 0x3c
 1566 0122 19       		.uleb128 0x19
 1567 0123 00       		.byte	0
 1568 0124 00       		.byte	0
 1569 0125 12       		.uleb128 0x12
 1570 0126 01       		.uleb128 0x1
 1571 0127 01       		.byte	0x1
 1572 0128 49       		.uleb128 0x49
 1573 0129 13       		.uleb128 0x13
 1574 012a 01       		.uleb128 0x1
 1575 012b 13       		.uleb128 0x13
 1576 012c 00       		.byte	0
 1577 012d 00       		.byte	0
 1578 012e 13       		.uleb128 0x13
 1579 012f 21       		.uleb128 0x21
 1580 0130 00       		.byte	0
 1581 0131 49       		.uleb128 0x49
 1582 0132 13       		.uleb128 0x13
 1583 0133 2F       		.uleb128 0x2f
 1584 0134 0B       		.uleb128 0xb
 1585 0135 00       		.byte	0
 1586 0136 00       		.byte	0
 1587 0137 14       		.uleb128 0x14
 1588 0138 21       		.uleb128 0x21
 1589 0139 00       		.byte	0
 1590 013a 49       		.uleb128 0x49
 1591 013b 13       		.uleb128 0x13
 1592 013c 2F       		.uleb128 0x2f
 1593 013d 05       		.uleb128 0x5
 1594 013e 00       		.byte	0
 1595 013f 00       		.byte	0
 1596 0140 15       		.uleb128 0x15
 1597 0141 34       		.uleb128 0x34
 1598 0142 00       		.byte	0
 1599 0143 03       		.uleb128 0x3
 1600 0144 0E       		.uleb128 0xe
 1601 0145 3A       		.uleb128 0x3a
ARM GAS  C:\Users\pajoh\AppData\Local\Temp\ccpfK10Z.s 			page 38


 1602 0146 0B       		.uleb128 0xb
 1603 0147 3B       		.uleb128 0x3b
 1604 0148 0B       		.uleb128 0xb
 1605 0149 49       		.uleb128 0x49
 1606 014a 13       		.uleb128 0x13
 1607 014b 3F       		.uleb128 0x3f
 1608 014c 19       		.uleb128 0x19
 1609 014d 02       		.uleb128 0x2
 1610 014e 18       		.uleb128 0x18
 1611 014f 00       		.byte	0
 1612 0150 00       		.byte	0
 1613 0151 00       		.byte	0
 1614              		.section	.debug_aranges,"",%progbits
 1615 0000 7C000000 		.4byte	0x7c
 1616 0004 0200     		.2byte	0x2
 1617 0006 00000000 		.4byte	.Ldebug_info0
 1618 000a 04       		.byte	0x4
 1619 000b 00       		.byte	0
 1620 000c 0000     		.2byte	0
 1621 000e 0000     		.2byte	0
 1622 0010 00000000 		.4byte	.LFB0
 1623 0014 20000000 		.4byte	.LFE0-.LFB0
 1624 0018 00000000 		.4byte	.LFB1
 1625 001c 24000000 		.4byte	.LFE1-.LFB1
 1626 0020 00000000 		.4byte	.LFB2
 1627 0024 18000000 		.4byte	.LFE2-.LFB2
 1628 0028 00000000 		.4byte	.LFB3
 1629 002c 8C020000 		.4byte	.LFE3-.LFB3
 1630 0030 00000000 		.4byte	.LFB4
 1631 0034 24000000 		.4byte	.LFE4-.LFB4
 1632 0038 00000000 		.4byte	.LFB5
 1633 003c 20000000 		.4byte	.LFE5-.LFB5
 1634 0040 00000000 		.4byte	.LFB6
 1635 0044 24000000 		.4byte	.LFE6-.LFB6
 1636 0048 00000000 		.4byte	.LFB7
 1637 004c 20000000 		.4byte	.LFE7-.LFB7
 1638 0050 00000000 		.4byte	.LFB8
 1639 0054 18000000 		.4byte	.LFE8-.LFB8
 1640 0058 00000000 		.4byte	.LFB9
 1641 005c 1C000000 		.4byte	.LFE9-.LFB9
 1642 0060 00000000 		.4byte	.LFB10
 1643 0064 18000000 		.4byte	.LFE10-.LFB10
 1644 0068 00000000 		.4byte	.LFB11
 1645 006c 18000000 		.4byte	.LFE11-.LFB11
 1646 0070 00000000 		.4byte	.LFB12
 1647 0074 18000000 		.4byte	.LFE12-.LFB12
 1648 0078 00000000 		.4byte	0
 1649 007c 00000000 		.4byte	0
 1650              		.section	.debug_ranges,"",%progbits
 1651              	.Ldebug_ranges0:
 1652 0000 00000000 		.4byte	.LFB0
 1653 0004 20000000 		.4byte	.LFE0
 1654 0008 00000000 		.4byte	.LFB1
 1655 000c 24000000 		.4byte	.LFE1
 1656 0010 00000000 		.4byte	.LFB2
 1657 0014 18000000 		.4byte	.LFE2
 1658 0018 00000000 		.4byte	.LFB3
ARM GAS  C:\Users\pajoh\AppData\Local\Temp\ccpfK10Z.s 			page 39


 1659 001c 8C020000 		.4byte	.LFE3
 1660 0020 00000000 		.4byte	.LFB4
 1661 0024 24000000 		.4byte	.LFE4
 1662 0028 00000000 		.4byte	.LFB5
 1663 002c 20000000 		.4byte	.LFE5
 1664 0030 00000000 		.4byte	.LFB6
 1665 0034 24000000 		.4byte	.LFE6
 1666 0038 00000000 		.4byte	.LFB7
 1667 003c 20000000 		.4byte	.LFE7
 1668 0040 00000000 		.4byte	.LFB8
 1669 0044 18000000 		.4byte	.LFE8
 1670 0048 00000000 		.4byte	.LFB9
 1671 004c 1C000000 		.4byte	.LFE9
 1672 0050 00000000 		.4byte	.LFB10
 1673 0054 18000000 		.4byte	.LFE10
 1674 0058 00000000 		.4byte	.LFB11
 1675 005c 18000000 		.4byte	.LFE11
 1676 0060 00000000 		.4byte	.LFB12
 1677 0064 18000000 		.4byte	.LFE12
 1678 0068 00000000 		.4byte	0
 1679 006c 00000000 		.4byte	0
 1680              		.section	.debug_line,"",%progbits
 1681              	.Ldebug_line0:
 1682 0000 72010000 		.section	.debug_str,"MS",%progbits,1
 1682      02004100 
 1682      00000201 
 1682      FB0E0D00 
 1682      01010101 
 1683              	.LASF48:
 1684 0000 61786973 		.ascii	"axis_position_filtered\000"
 1684      5F706F73 
 1684      6974696F 
 1684      6E5F6669 
 1684      6C746572 
 1685              	.LASF19:
 1686 0017 72656733 		.ascii	"reg32\000"
 1686      3200
 1687              	.LASF51:
 1688 001d 474E5520 		.ascii	"GNU C11 5.4.1 20160609 (release) [ARM/embedded-5-br"
 1688      43313120 
 1688      352E342E 
 1688      31203230 
 1688      31363036 
 1689 0050 616E6368 		.ascii	"anch revision 237715] -mcpu=cortex-m3 -mthumb -g -O"
 1689      20726576 
 1689      6973696F 
 1689      6E203233 
 1689      37373135 
 1690 0083 30202D66 		.ascii	"0 -ffunction-sections -ffat-lto-objects\000"
 1690      66756E63 
 1690      74696F6E 
 1690      2D736563 
 1690      74696F6E 
 1691              	.LASF43:
 1692 00ab 746F7271 		.ascii	"torque_command\000"
 1692      75655F63 
 1692      6F6D6D61 
ARM GAS  C:\Users\pajoh\AppData\Local\Temp\ccpfK10Z.s 			page 40


 1692      6E6400
 1693              	.LASF50:
 1694 00ba 636F756E 		.ascii	"count\000"
 1694      7400
 1695              	.LASF23:
 1696 00c0 7469636B 		.ascii	"tick_Interrupt\000"
 1696      5F496E74 
 1696      65727275 
 1696      707400
 1697              	.LASF6:
 1698 00cf 73686F72 		.ascii	"short unsigned int\000"
 1698      7420756E 
 1698      7369676E 
 1698      65642069 
 1698      6E7400
 1699              	.LASF25:
 1700 00e2 7469636B 		.ascii	"tick_SetVector\000"
 1700      5F536574 
 1700      56656374 
 1700      6F7200
 1701              	.LASF17:
 1702 00f1 646F7562 		.ascii	"double\000"
 1702      6C6500
 1703              	.LASF31:
 1704 00f8 7469636B 		.ascii	"tick_GetPriority\000"
 1704      5F476574 
 1704      5072696F 
 1704      72697479 
 1704      00
 1705              	.LASF30:
 1706 0109 7469636B 		.ascii	"tick_GetVector\000"
 1706      5F476574 
 1706      56656374 
 1706      6F7200
 1707              	.LASF16:
 1708 0118 666C6F61 		.ascii	"float\000"
 1708      7400
 1709              	.LASF53:
 1710 011e 433A5C55 		.ascii	"C:\\Users\\pajoh\\projects\\StepperTorqueControl\\S"
 1710      73657273 
 1710      5C70616A 
 1710      6F685C70 
 1710      726F6A65 
 1711 014c 74657070 		.ascii	"tepperTorqueControl.cydsn\000"
 1711      6572546F 
 1711      72717565 
 1711      436F6E74 
 1711      726F6C2E 
 1712              	.LASF44:
 1713 0166 61786973 		.ascii	"axis_position\000"
 1713      5F706F73 
 1713      6974696F 
 1713      6E00
 1714              	.LASF4:
 1715 0174 756E7369 		.ascii	"unsigned char\000"
 1715      676E6564 
 1715      20636861 
ARM GAS  C:\Users\pajoh\AppData\Local\Temp\ccpfK10Z.s 			page 41


 1715      7200
 1716              	.LASF49:
 1717 0182 73746172 		.ascii	"start_count\000"
 1717      745F636F 
 1717      756E7400 
 1718              	.LASF18:
 1719 018e 72656738 		.ascii	"reg8\000"
 1719      00
 1720              	.LASF8:
 1721 0193 6C6F6E67 		.ascii	"long unsigned int\000"
 1721      20756E73 
 1721      69676E65 
 1721      6420696E 
 1721      7400
 1722              	.LASF15:
 1723 01a5 696E7433 		.ascii	"int32\000"
 1723      3200
 1724              	.LASF37:
 1725 01ab 616E676C 		.ascii	"angle\000"
 1725      6500
 1726              	.LASF21:
 1727 01b1 7469636B 		.ascii	"tick_Start\000"
 1727      5F537461 
 1727      727400
 1728              	.LASF29:
 1729 01bc 7072696F 		.ascii	"priority\000"
 1729      72697479 
 1729      00
 1730              	.LASF52:
 1731 01c5 47656E65 		.ascii	"Generated_Source\\PSoC5\\tick.c\000"
 1731      72617465 
 1731      645F536F 
 1731      75726365 
 1731      5C50536F 
 1732              	.LASF40:
 1733 01e3 73746570 		.ascii	"step_array\000"
 1733      5F617272 
 1733      617900
 1734              	.LASF38:
 1735 01ee 72656164 		.ascii	"read_angle_command\000"
 1735      5F616E67 
 1735      6C655F63 
 1735      6F6D6D61 
 1735      6E6400
 1736              	.LASF41:
 1737 0201 616E676C 		.ascii	"angle_electric\000"
 1737      655F656C 
 1737      65637472 
 1737      696300
 1738              	.LASF13:
 1739 0210 75696E74 		.ascii	"uint16\000"
 1739      313600
 1740              	.LASF36:
 1741 0217 636F6E74 		.ascii	"controller_tick\000"
 1741      726F6C6C 
 1741      65725F74 
 1741      69636B00 
ARM GAS  C:\Users\pajoh\AppData\Local\Temp\ccpfK10Z.s 			page 42


 1742              	.LASF22:
 1743 0227 7469636B 		.ascii	"tick_Stop\000"
 1743      5F53746F 
 1743      7000
 1744              	.LASF14:
 1745 0231 75696E74 		.ascii	"uint32\000"
 1745      333200
 1746              	.LASF34:
 1747 0238 7469636B 		.ascii	"tick_SetPending\000"
 1747      5F536574 
 1747      50656E64 
 1747      696E6700 
 1748              	.LASF35:
 1749 0248 7469636B 		.ascii	"tick_ClearPending\000"
 1749      5F436C65 
 1749      61725065 
 1749      6E64696E 
 1749      6700
 1750              	.LASF0:
 1751 025a 756E7369 		.ascii	"unsigned int\000"
 1751      676E6564 
 1751      20696E74 
 1751      00
 1752              	.LASF26:
 1753 0267 61646472 		.ascii	"address\000"
 1753      65737300 
 1754              	.LASF9:
 1755 026f 6C6F6E67 		.ascii	"long long unsigned int\000"
 1755      206C6F6E 
 1755      6720756E 
 1755      7369676E 
 1755      65642069 
 1756              	.LASF28:
 1757 0286 7469636B 		.ascii	"tick_SetPriority\000"
 1757      5F536574 
 1757      5072696F 
 1757      72697479 
 1757      00
 1758              	.LASF33:
 1759 0297 7469636B 		.ascii	"tick_Disable\000"
 1759      5F446973 
 1759      61626C65 
 1759      00
 1760              	.LASF32:
 1761 02a4 7469636B 		.ascii	"tick_Enable\000"
 1761      5F456E61 
 1761      626C6500 
 1762              	.LASF20:
 1763 02b0 63796973 		.ascii	"cyisraddress\000"
 1763      72616464 
 1763      72657373 
 1763      00
 1764              	.LASF24:
 1765 02bd 7469636B 		.ascii	"tick_StartEx\000"
 1765      5F537461 
 1765      72744578 
 1765      00
ARM GAS  C:\Users\pajoh\AppData\Local\Temp\ccpfK10Z.s 			page 43


 1766              	.LASF39:
 1767 02ca 6C656164 		.ascii	"lead_angle\000"
 1767      5F616E67 
 1767      6C6500
 1768              	.LASF10:
 1769 02d5 73697A65 		.ascii	"sizetype\000"
 1769      74797065 
 1769      00
 1770              	.LASF1:
 1771 02de 6C6F6E67 		.ascii	"long long int\000"
 1771      206C6F6E 
 1771      6720696E 
 1771      7400
 1772              	.LASF11:
 1773 02ec 63686172 		.ascii	"char\000"
 1773      00
 1774              	.LASF27:
 1775 02f1 72616D56 		.ascii	"ramVectorTable\000"
 1775      6563746F 
 1775      72546162 
 1775      6C6500
 1776              	.LASF5:
 1777 0300 73686F72 		.ascii	"short int\000"
 1777      7420696E 
 1777      7400
 1778              	.LASF46:
 1779 030a 616E676C 		.ascii	"angle_old\000"
 1779      655F6F6C 
 1779      6400
 1780              	.LASF12:
 1781 0314 75696E74 		.ascii	"uint8\000"
 1781      3800
 1782              	.LASF45:
 1783 031a 6F666673 		.ascii	"offsetMap\000"
 1783      65744D61 
 1783      7000
 1784              	.LASF7:
 1785 0324 6C6F6E67 		.ascii	"long int\000"
 1785      20696E74 
 1785      00
 1786              	.LASF54:
 1787 032d 7469636B 		.ascii	"tick_GetState\000"
 1787      5F476574 
 1787      53746174 
 1787      6500
 1788              	.LASF47:
 1789 033b 61786973 		.ascii	"axis_position_old\000"
 1789      5F706F73 
 1789      6974696F 
 1789      6E5F6F6C 
 1789      6400
 1790              	.LASF2:
 1791 034d 6C6F6E67 		.ascii	"long double\000"
 1791      20646F75 
 1791      626C6500 
 1792              	.LASF3:
 1793 0359 7369676E 		.ascii	"signed char\000"
ARM GAS  C:\Users\pajoh\AppData\Local\Temp\ccpfK10Z.s 			page 44


 1793      65642063 
 1793      68617200 
 1794              	.LASF42:
 1795 0365 616E676C 		.ascii	"angle_diff\000"
 1795      655F6469 
 1795      666600
 1796              		.ident	"GCC: (GNU Tools for ARM Embedded Processors) 5.4.1 20160609 (release) [ARM/embedded-5-bran
